((dp1
V\uc800
I2
sV\uc785
I3
sV\ud604
I4
sV\ubc00
I271
sV\ud589
I6
sV\uac08
I7
sV\ub20c
I8
sV\uc810
I9
sV\ubc18
I10
sV\uc21c
I11
sV\ud69f
I12
sV\uc1a1
I13
sV\uc7a5
I14
sV\uc624
I15
sV\ucda9
I16
sV\ucc28
I17
sV\ud22c
I18
sV\ub989
I19
sV\ub7b5
I20
sV\uae34
I21
sV\ucc38
I22
sV\ub0b4
I426
sV\uc9c1
I24
sV\ub840
I25
sV\uc601
I477
sV\uc644
I26
sV\uc560
I355
sV\uc9d1
I28
sV\ud654
I29
sV\ub860
I30
sV\ud56d
I437
sV\ud3ed
I31
sV\ubd95
I299
sV\uc870
I32
sV\uacf3
I33
sV\uadf9
I34
sV\uac78
I35
sV\ud207
I36
sV\ubd09
I37
sV\ubc88
I38
sV\uc30d
I39
sV\uba8c
I40
sV\uc911
I41
sV\uac13
I42
sV\uc694
I43
sV\ucc98
I44
sV\ubcc4
I266
sV\ub0a0
I46
sV\ucca8
I48
sV\uc2ac
I49
sV\uc131
I50
sV\ub8b0
I51
sV\uc735
I52
sV\uc6b4
I53
sV\ub2c8
I428
sV\uacb8
I55
sV\ud33d
I56
sV\ud0c0
I57
sV\ubc43
I58
sV\ud6c4
I59
sV\uad49
I60
sV\ud0d0
I61
sV\uc6d4
I63
sV\ub178
I361
sV\ud559
I64
sV\uc2dc
I65
sV\uc751
I431
sV\ub463
I67
sV\ud765
I68
sV\ud6e4
I69
sV\ud569
I70
sV\uace8
I71
sV\ub2ec
I72
sV\ub77c
I362
sV\uc775
I74
sV\uc575
I75
sV\ubcf8
I77
sV\uc900
I78
sV\uc704
I79
sV\ucd08
I80
sV\ud30c
I81
sV\uce5c
I293
sV\ubd93
I82
sV\uc695
I83
sV\ucc99
I84
sV\uad18
I85
sV\ub784
I86
sV\uc120
I87
sV\uc724
I88
sV\ubc30
I285
sV\uaca9
I90
sV\uc528
I91
sV\ud130
I92
sV\ud734
I93
sV\ubabd
I95
sV\ubb3c
I96
sV\uc7bf
I97
sV\uc0c1
I98
sV\ub140
I99
sV\uc6c5
I100
sV\uc744
I101
sV\uc548
I102
sV\ud5cc
I501
sV\ucf8c
I367
sV\ud0d1
I104
sV\ub150
I105
sV\ubc31
I372
sV\ud754
I106
sV\ub3d7
I47
sV\ud558
I108
sV\uc2dd
I109
sV\ub8e1
I110
sV\ub960
I111
sV\uc990
I112
sV\ud568
I113
sV\uc2ed
I114
sV\ud0f1
I115
sV\uc774
I116
sV\uc801
I117
sV\uc784
I118
sV\ubd88
I94
sV\uc811
I120
sV\uc190
I121
sV\ud615
I122
sV\uc794
I123
sV\ucd98
I124
sV\ube44
I125
sV\ud1a0
I126
sV\uc625
I127
sV\ucc29
I128
sV\uc22d
I129
sV\ub9b0
I130
sV\uce35
I131
sV\uac39
I132
sV\uc5b8
I133
sV\uc9c0
I134
sV\ud5c8
I135
sV\uc14b
I136
sV\ub3cc
I137
sV\uc9d0
I204
sV\uc655
I209
sV\ud5d8
I141
sV\uc1e0
I142
sV\uad63
I143
sV\ucde8
I144
sV\ud3ec
I145
sV\uacfc
I442
sV\ub871
I247
sV\ubc29
I148
sV\ubbfc
I149
sV\uac04
I150
sV\uc789
I151
sV\uc608
I152
sV\uc18d
I154
sV\ud0c1
I478
sV\ucd95
I155
sV\ubc14
I156
sV\uae40
I401
sV\uc99d
I157
sV\uc81c
I158
sV\uc220
I159
sV\ud5a5
I160
sV\uc628
I161
sV\ub82c
I162
sV\ud65c
I138
sV\uc5b5
I164
sV\ud638
I165
sV\ub9bd
I166
sV\uc5c5
I167
sV\ucc44
I168
sV\ub7c9
I169
sV\ube48
I170
sV\ub454
I171
sV\uce58
I172
sV\ub9dd
I173
sV\ub85c
I174
sV\uce68
I175
sV\uac74
I176
sV\uc678
I177
sV\ub301
I178
sV\uc88c
I179
sV\ubc94
I180
sV\uc11d
I181
sV\ub09c
I182
sV\ub3c4
I376
sV\ud6a8
I184
sV\uc22b
I185
sV\uc12d
I186
sV\uc0ac
I187
sV\ubab0
I188
sV\uccb4
I189
sV\uc9c8
I377
sV\uc6b8
I191
sV\uc0bc
I192
sV\uae43
I193
sV\uc545
I194
sV\uacc4
I195
sV\ud749
I196
sV\ud6c8
I197
sV\ub8cc
I198
sV\uc555
I199
sV\ud0dc
I201
sV\uc2e0
I202
sV\uace4
I203
sV\ub9d0
I139
sV\ub96d
I205
sV\ud46f
I206
sV\ud575
I207
sV\ubcf4
I208
sV\ud655
I140
sV\uc8fc
I210
sV\ub300
I211
sV\uad04
I212
sV\ub0ad
I222
sV\uc58f
I214
sV\ud310
I215
sV\ubc95
I216
sV\ud718
I217
sV\uc11c
I218
sV\uc7a3
I219
sV\uc6a9
I220
sV\uc728
I221
sV\uc0ad
I213
sV\uc12c
I223
sV\ucd09
I224
sV\uad34
I225
sV\ud488
I226
sV\uc0bd
I227
sV\uc544
I228
sV\uc2b9
I457
sV\uc554
I230
sV\uc758
I231
sV\ud0dd
I232
sV\ub95c
I233
sV\ubcbd
I459
sV\ubcf5
I235
sV\ud574
I236
sV\uc778
I237
sV\uc8fd
I238
sV\ub17c
I239
sV\uc2e4
I353
sV\ubd84
I240
sV\uae09
I241
sV\uc18c
I242
sV\ubc15
I243
sV\ucd94
I244
sV\ub798
I245
sV\ud544
I246
sV\uc871
I147
sV\uada4
I248
sV\ub9ac
I249
sV\uc733
I250
sV\uc5b4
I251
sV\ud639
I252
sV\ud33b
I253
sV\ub9bc
I254
sS'<OOV>'
p2
I1
sV\ucc45
I255
sV\uc5c4
I256
sV\ub9cc
I257
sV\ud54f
I258
sV\ud3d0
I259
sV\uce59
I260
sV\ub85d
I261
sV\ud608
I262
sV\uade4
I263
sV\ud669
I264
sV\uba71
I265
sV\uc5f4
I267
sV\ub07d
I269
sV\ubd81
I270
sV\uac00
I5
sV\ub204
I272
sV\uc989
I273
sV\uc808
I274
sV\ub78d
I275
sV\uc591
I276
sV\uac10
I277
sV\ud758
I278
sV\uc999
I279
sV\ud61c
I280
sV\uc0b0
I281
sV\ub828
I76
sV\ub7ad
I283
sV\ucd5c
I469
sV\ucc30
I89
sV\uae08
I286
sV\ud63c
I287
sV\ub3c5
I288
sV\ub9c9
I289
sV\ub18d
I290
sV\ub450
I291
sV\ud6d7
I292
sV\uc65c
I163
sV\uc791
I388
sV\uc2ef
I295
sV\uac70
I296
sV\uba74
I297
sV\ub9f9
I298
sV\uc878
I200
sV\uac80
I300
sV\ubc0b
I301
sV\ud68c
I302
sV\uad11
I303
sV\ub098
I304
sV\ucca0
I305
sV\ub0a8
I306
sV\uac1c
I392
sV\uacb0
I308
sV\ubb35
I309
sV\uc637
I310
sV\uc0c8
I311
sV\uacf5
I312
sV\ucc3b
I313
sV\uad74
I314
sV\ubcc0
I315
sV\ud345
I316
sV\ud0c8
I317
sV\uc74d
I318
sV\ub355
I319
sV\ube57
I320
sV\ub959
I321
sV\uc561
I322
sV\uace0
I323
sV\ub2e4
I324
sV\ud667
I325
sV\ub8e8
I326
sV\ub2f4
I327
sV\ub179
I328
sV\ub77d
I329
sV\ud6fc
I330
sV\uac81
I331
sV\uad00
I386
sV\uba85
I333
sV\ud68d
I335
sV\uc559
I336
sV\ud314
I337
sV\ub099
I338
sV\ub2a5
I339
sV\ub0a9
I340
sV\ud1b3
I341
sV\uc2b5
I342
sV\ubb34
I343
sV\uc138
I344
sV\ud73c
I345
sV\uc0c9
I346
sV\uc74c
I347
sV\ubcd1
I348
sV\uad50
I349
sV\uc9d3
I350
sV\uae38
I351
sV\ub958
I352
sS'<EMP>'
p3
I0
sV\uace1
I354
sV\ud560
I27
sV\uc790
I483
sV\ud76c
I357
sV\ub4f1
I358
sV\uad70
I359
sV\ub2f5
I360
sV\uac15
I268
sV\uc77c
I73
sV\uac01
I363
sV\ubd80
I364
sV\uc640
I365
sV\uae0d
I366
sV\ub78c
I103
sV\uc2ec
I368
sV\uac11
I369
sV\uad90
I370
sV\uc7ac
I371
sV\uac31
I62
sV\uc648
I373
sV\ub839
I374
sV\uadc0
I375
sV\ud3c4
I183
sV\ub9c8
I190
sV\ud64d
I378
sV\ud5d0
I379
sV\uade0
I380
sV\ub1e8
I381
sV\uce6d
I382
sV\uc5f0
I383
sV\uacf6
I384
sV\uc804
I385
sV\uc68b
I387
sV\ub791
I294
sV\ud610
I389
sV\ud658
I390
sV\uc218
I391
sV\ubc1c
I307
sV\uc7a1
I393
sV\ub824
I394
sV\uc0dd
I282
sV\ucc2c
I395
sV\uae30
I396
sV\ud1b5
I397
sV\ub834
I398
sV\uc0bf
I399
sV\uc7c1
I400
sV\ud640
I107
sV\uccc7
I402
sV\ud3c9
I403
sV\uc639
I404
sV\uc9d5
I405
sV\uacd7
I406
sV\ub3d9
I407
sV\ud45c
I408
sV\uce60
I409
sV\ub9e5
I410
sV\uad81
I411
sV\uc5ed
I412
sV\ud0ef
I413
sV\uc874
I414
sV\uba78
I415
sV\uc5fd
I416
sV\ubc8c
I417
sV\uc8c4
I427
sV\ucd1d
I418
sV\ucc9c
I419
sV\uc1c4
I499
sV\uc721
I421
sV\ubaa8
I422
sV\uacac
I423
sV\uc82f
I424
sV\uc6b0
I425
sV\uc0b4
I23
sV\ud0c4
I45
sV\ud2c8
I54
sV\ud54d
I429
sV\ub1cc
I430
sV\ud751
I66
sV\uc6d0
I432
sV\ub155
I433
sV\ud761
I434
sV\ub2e8
I435
sV\uce6b
I436
sV\uad6d
I119
sV\ub86f
I438
sV\ucca9
I439
sV\ub975
I440
sV\uc57d
I441
sV\ubcfc
I146
sV\uc885
I443
sV\ud587
I444
sV\ud48d
I445
sV\ucd0c
I446
sV\ube59
I447
sV\ubb18
I448
sV\ud6a1
I449
sV\uc720
I450
sV\uc124
I451
sV\ubaa9
I452
sV\ud328
I453
sV\uccad
I454
sV\ucd2c
I455
sV\uc6b1
I456
sV\ud2b9
I229
sV\ubb38
I458
sV\uacbd
I234
sV\ud53c
I460
sV\uc740
I461
sV\ub144
I462
sV\uc5c7
I463
sV\ub2c9
I464
sV\uc54c
I465
sV\uac8c
I466
sV\ud0d5
I467
sV\ub4dd
I468
sV\ud55c
I284
sV\ud760
I470
sV\ub0e5
I471
sV\uad6c
I472
sV\uce69
I473
sV\ub2f9
I474
sV\uacfd
I475
sV\uc57c
I476
sV\ud601
I332
sV\ub780
I334
sV\ubd07
I479
sV\uad8c
I480
sV\uc90f
I481
sV\ud611
I482
sV\ud790
I356
sV\ub313
I484
sV\uc815
I485
sV\uc194
I486
sV\uc219
I487
sV\ud398
I488
sV\uac1d
I489
sV\ucd9c
I490
sV\uce21
I491
sV\uc7a0
I492
sV\ub825
I493
sV\ub0c9
I494
sV\ub835
I495
sV\ud3b8
I496
sV\ucc3d
I497
sV\uc5bc
I498
sV\uc9c4
I420
sV\ub3c8
I500
sV\ucdcc
I153
sV\uaddc
I502
sV\ub9e4
I503
sV\uc5ec
I504
sV\uadfc
I508
sV\ud1f4
I506
sV\ubbf8
I507
sV\uc5fc
I505
s(dp4
I0
g3
sI1
g2
sI2
V\uc800
sI3
V\uc785
sI4
V\ud604
sI5
V\uac00
sI6
V\ud589
sI7
V\uac08
sI8
V\ub20c
sI9
V\uc810
sI10
V\ubc18
sI11
V\uc21c
sI12
V\ud69f
sI13
V\uc1a1
sI14
V\uc7a5
sI15
V\uc624
sI16
V\ucda9
sI17
V\ucc28
sI18
V\ud22c
sI19
V\ub989
sI20
V\ub7b5
sI21
V\uae34
sI22
V\ucc38
sI23
V\uc0b4
sI24
V\uc9c1
sI25
V\ub840
sI26
V\uc644
sI27
V\ud560
sI28
V\uc9d1
sI29
V\ud654
sI30
V\ub860
sI31
V\ud3ed
sI32
V\uc870
sI33
V\uacf3
sI34
V\uadf9
sI35
V\uac78
sI36
V\ud207
sI37
V\ubd09
sI38
V\ubc88
sI39
V\uc30d
sI40
V\uba8c
sI41
V\uc911
sI42
V\uac13
sI43
V\uc694
sI44
V\ucc98
sI45
V\ud0c4
sI46
V\ub0a0
sI47
V\ub3d7
sI48
V\ucca8
sI49
V\uc2ac
sI50
V\uc131
sI51
V\ub8b0
sI52
V\uc735
sI53
V\uc6b4
sI54
V\ud2c8
sI55
V\uacb8
sI56
V\ud33d
sI57
V\ud0c0
sI58
V\ubc43
sI59
V\ud6c4
sI60
V\uad49
sI61
V\ud0d0
sI62
V\uac31
sI63
V\uc6d4
sI64
V\ud559
sI65
V\uc2dc
sI66
V\ud751
sI67
V\ub463
sI68
V\ud765
sI69
V\ud6e4
sI70
V\ud569
sI71
V\uace8
sI72
V\ub2ec
sI73
V\uc77c
sI74
V\uc775
sI75
V\uc575
sI76
V\ub828
sI77
V\ubcf8
sI78
V\uc900
sI79
V\uc704
sI80
V\ucd08
sI81
V\ud30c
sI82
V\ubd93
sI83
V\uc695
sI84
V\ucc99
sI85
V\uad18
sI86
V\ub784
sI87
V\uc120
sI88
V\uc724
sI89
V\ucc30
sI90
V\uaca9
sI91
V\uc528
sI92
V\ud130
sI93
V\ud734
sI94
V\ubd88
sI95
V\ubabd
sI96
V\ubb3c
sI97
V\uc7bf
sI98
V\uc0c1
sI99
V\ub140
sI100
V\uc6c5
sI101
V\uc744
sI102
V\uc548
sI103
V\ub78c
sI104
V\ud0d1
sI105
V\ub150
sI106
V\ud754
sI107
V\ud640
sI108
V\ud558
sI109
V\uc2dd
sI110
V\ub8e1
sI111
V\ub960
sI112
V\uc990
sI113
V\ud568
sI114
V\uc2ed
sI115
V\ud0f1
sI116
V\uc774
sI117
V\uc801
sI118
V\uc784
sI119
V\uad6d
sI120
V\uc811
sI121
V\uc190
sI122
V\ud615
sI123
V\uc794
sI124
V\ucd98
sI125
V\ube44
sI126
V\ud1a0
sI127
V\uc625
sI128
V\ucc29
sI129
V\uc22d
sI130
V\ub9b0
sI131
V\uce35
sI132
V\uac39
sI133
V\uc5b8
sI134
V\uc9c0
sI135
V\ud5c8
sI136
V\uc14b
sI137
V\ub3cc
sI138
V\ud65c
sI139
V\ub9d0
sI140
V\ud655
sI141
V\ud5d8
sI142
V\uc1e0
sI143
V\uad63
sI144
V\ucde8
sI145
V\ud3ec
sI146
V\ubcfc
sI147
V\uc871
sI148
V\ubc29
sI149
V\ubbfc
sI150
V\uac04
sI151
V\uc789
sI152
V\uc608
sI153
V\ucdcc
sI154
V\uc18d
sI155
V\ucd95
sI156
V\ubc14
sI157
V\uc99d
sI158
V\uc81c
sI159
V\uc220
sI160
V\ud5a5
sI161
V\uc628
sI162
V\ub82c
sI163
V\uc65c
sI164
V\uc5b5
sI165
V\ud638
sI166
V\ub9bd
sI167
V\uc5c5
sI168
V\ucc44
sI169
V\ub7c9
sI170
V\ube48
sI171
V\ub454
sI172
V\uce58
sI173
V\ub9dd
sI174
V\ub85c
sI175
V\uce68
sI176
V\uac74
sI177
V\uc678
sI178
V\ub301
sI179
V\uc88c
sI180
V\ubc94
sI181
V\uc11d
sI182
V\ub09c
sI183
V\ud3c4
sI184
V\ud6a8
sI185
V\uc22b
sI186
V\uc12d
sI187
V\uc0ac
sI188
V\ubab0
sI189
V\uccb4
sI190
V\ub9c8
sI191
V\uc6b8
sI192
V\uc0bc
sI193
V\uae43
sI194
V\uc545
sI195
V\uacc4
sI196
V\ud749
sI197
V\ud6c8
sI198
V\ub8cc
sI199
V\uc555
sI200
V\uc878
sI201
V\ud0dc
sI202
V\uc2e0
sI203
V\uace4
sI204
V\uc9d0
sI205
V\ub96d
sI206
V\ud46f
sI207
V\ud575
sI208
V\ubcf4
sI209
V\uc655
sI210
V\uc8fc
sI211
V\ub300
sI212
V\uad04
sI213
V\uc0ad
sI214
V\uc58f
sI215
V\ud310
sI216
V\ubc95
sI217
V\ud718
sI218
V\uc11c
sI219
V\uc7a3
sI220
V\uc6a9
sI221
V\uc728
sI222
V\ub0ad
sI223
V\uc12c
sI224
V\ucd09
sI225
V\uad34
sI226
V\ud488
sI227
V\uc0bd
sI228
V\uc544
sI229
V\ud2b9
sI230
V\uc554
sI231
V\uc758
sI232
V\ud0dd
sI233
V\ub95c
sI234
V\uacbd
sI235
V\ubcf5
sI236
V\ud574
sI237
V\uc778
sI238
V\uc8fd
sI239
V\ub17c
sI240
V\ubd84
sI241
V\uae09
sI242
V\uc18c
sI243
V\ubc15
sI244
V\ucd94
sI245
V\ub798
sI246
V\ud544
sI247
V\ub871
sI248
V\uada4
sI249
V\ub9ac
sI250
V\uc733
sI251
V\uc5b4
sI252
V\ud639
sI253
V\ud33b
sI254
V\ub9bc
sI255
V\ucc45
sI256
V\uc5c4
sI257
V\ub9cc
sI258
V\ud54f
sI259
V\ud3d0
sI260
V\uce59
sI261
V\ub85d
sI262
V\ud608
sI263
V\uade4
sI264
V\ud669
sI265
V\uba71
sI266
V\ubcc4
sI267
V\uc5f4
sI268
V\uac15
sI269
V\ub07d
sI270
V\ubd81
sI271
V\ubc00
sI272
V\ub204
sI273
V\uc989
sI274
V\uc808
sI275
V\ub78d
sI276
V\uc591
sI277
V\uac10
sI278
V\ud758
sI279
V\uc999
sI280
V\ud61c
sI281
V\uc0b0
sI282
V\uc0dd
sI283
V\ub7ad
sI284
V\ud55c
sI285
V\ubc30
sI286
V\uae08
sI287
V\ud63c
sI288
V\ub3c5
sI289
V\ub9c9
sI290
V\ub18d
sI291
V\ub450
sI292
V\ud6d7
sI293
V\uce5c
sI294
V\ub791
sI295
V\uc2ef
sI296
V\uac70
sI297
V\uba74
sI298
V\ub9f9
sI299
V\ubd95
sI300
V\uac80
sI301
V\ubc0b
sI302
V\ud68c
sI303
V\uad11
sI304
V\ub098
sI305
V\ucca0
sI306
V\ub0a8
sI307
V\ubc1c
sI308
V\uacb0
sI309
V\ubb35
sI310
V\uc637
sI311
V\uc0c8
sI312
V\uacf5
sI313
V\ucc3b
sI314
V\uad74
sI315
V\ubcc0
sI316
V\ud345
sI317
V\ud0c8
sI318
V\uc74d
sI319
V\ub355
sI320
V\ube57
sI321
V\ub959
sI322
V\uc561
sI323
V\uace0
sI324
V\ub2e4
sI325
V\ud667
sI326
V\ub8e8
sI327
V\ub2f4
sI328
V\ub179
sI329
V\ub77d
sI330
V\ud6fc
sI331
V\uac81
sI332
V\ud601
sI333
V\uba85
sI334
V\ub780
sI335
V\ud68d
sI336
V\uc559
sI337
V\ud314
sI338
V\ub099
sI339
V\ub2a5
sI340
V\ub0a9
sI341
V\ud1b3
sI342
V\uc2b5
sI343
V\ubb34
sI344
V\uc138
sI345
V\ud73c
sI346
V\uc0c9
sI347
V\uc74c
sI348
V\ubcd1
sI349
V\uad50
sI350
V\uc9d3
sI351
V\uae38
sI352
V\ub958
sI353
V\uc2e4
sI354
V\uace1
sI355
V\uc560
sI356
V\ud790
sI357
V\ud76c
sI358
V\ub4f1
sI359
V\uad70
sI360
V\ub2f5
sI361
V\ub178
sI362
V\ub77c
sI363
V\uac01
sI364
V\ubd80
sI365
V\uc640
sI366
V\uae0d
sI367
V\ucf8c
sI368
V\uc2ec
sI369
V\uac11
sI370
V\uad90
sI371
V\uc7ac
sI372
V\ubc31
sI373
V\uc648
sI374
V\ub839
sI375
V\uadc0
sI376
V\ub3c4
sI377
V\uc9c8
sI378
V\ud64d
sI379
V\ud5d0
sI380
V\uade0
sI381
V\ub1e8
sI382
V\uce6d
sI383
V\uc5f0
sI384
V\uacf6
sI385
V\uc804
sI386
V\uad00
sI387
V\uc68b
sI388
V\uc791
sI389
V\ud610
sI390
V\ud658
sI391
V\uc218
sI392
V\uac1c
sI393
V\uc7a1
sI394
V\ub824
sI395
V\ucc2c
sI396
V\uae30
sI397
V\ud1b5
sI398
V\ub834
sI399
V\uc0bf
sI400
V\uc7c1
sI401
V\uae40
sI402
V\uccc7
sI403
V\ud3c9
sI404
V\uc639
sI405
V\uc9d5
sI406
V\uacd7
sI407
V\ub3d9
sI408
V\ud45c
sI409
V\uce60
sI410
V\ub9e5
sI411
V\uad81
sI412
V\uc5ed
sI413
V\ud0ef
sI414
V\uc874
sI415
V\uba78
sI416
V\uc5fd
sI417
V\ubc8c
sI418
V\ucd1d
sI419
V\ucc9c
sI420
V\uc9c4
sI421
V\uc721
sI422
V\ubaa8
sI423
V\uacac
sI424
V\uc82f
sI425
V\uc6b0
sI426
V\ub0b4
sI427
V\uc8c4
sI428
V\ub2c8
sI429
V\ud54d
sI430
V\ub1cc
sI431
V\uc751
sI432
V\uc6d0
sI433
V\ub155
sI434
V\ud761
sI435
V\ub2e8
sI436
V\uce6b
sI437
V\ud56d
sI438
V\ub86f
sI439
V\ucca9
sI440
V\ub975
sI441
V\uc57d
sI442
V\uacfc
sI443
V\uc885
sI444
V\ud587
sI445
V\ud48d
sI446
V\ucd0c
sI447
V\ube59
sI448
V\ubb18
sI449
V\ud6a1
sI450
V\uc720
sI451
V\uc124
sI452
V\ubaa9
sI453
V\ud328
sI454
V\uccad
sI455
V\ucd2c
sI456
V\uc6b1
sI457
V\uc2b9
sI458
V\ubb38
sI459
V\ubcbd
sI460
V\ud53c
sI461
V\uc740
sI462
V\ub144
sI463
V\uc5c7
sI464
V\ub2c9
sI465
V\uc54c
sI466
V\uac8c
sI467
V\ud0d5
sI468
V\ub4dd
sI469
V\ucd5c
sI470
V\ud760
sI471
V\ub0e5
sI472
V\uad6c
sI473
V\uce69
sI474
V\ub2f9
sI475
V\uacfd
sI476
V\uc57c
sI477
V\uc601
sI478
V\ud0c1
sI479
V\ubd07
sI480
V\uad8c
sI481
V\uc90f
sI482
V\ud611
sI483
V\uc790
sI484
V\ub313
sI485
V\uc815
sI486
V\uc194
sI487
V\uc219
sI488
V\ud398
sI489
V\uac1d
sI490
V\ucd9c
sI491
V\uce21
sI492
V\uc7a0
sI493
V\ub825
sI494
V\ub0c9
sI495
V\ub835
sI496
V\ud3b8
sI497
V\ucc3d
sI498
V\uc5bc
sI499
V\uc1c4
sI500
V\ub3c8
sI501
V\ud5cc
sI502
V\uaddc
sI503
V\ub9e4
sI504
V\uc5ec
sI505
V\uc5fc
sI506
V\ud1f4
sI507
V\ubbf8
sI508
V\uadfc
s(dp5
V\u8181
I2
sV\u8000
I3
sV\u8302
I4
sV\u6785
I5
sV\u8a87
I6
sV\u9000
I2224
sV\u6d89
I8
sV\u6c08
I9
sV\u4f0a
I10
sV\u550e
I11
sV\u7991
I12
sV\u9810
I13
sV\u7b12
I14
sV\u9f95
I15
sV\u6297
I16
sV\u6599
I17
sV\u889b
I92
sV\u6fae
I3536
sV\u6e9f
I21
sV\u6d1e
I22
sV\u5085
I3157
sV\u9020
I23
sV\u74a3
I24
sV\u9322
I25
sV\u77a5
I26
sV\u7624
I2546
sV\u822c
I30
sV\u6cb3
I31
sV\u6b32
I32
sV\u4fb5
I33
sV\u6e34
I34
sV\u92b7
I35
sV\u7136
I36
sV\u75b9
I37
sV\u5438
I38
sV\u58bb
I39
sV\u773a
I1363
sV\u7a3c
I41
sV\u8ac7
I42
sV\u8c48
I43
sV\u53cd
I44
sV\u724c
I45
sV\u820c
I2232
sV\u79d1
I47
sV\u7b52
I48
sV\u7e54
I49
sV\u82d7
I50
sV\u6458
I51
sV\u750e
I53
sV\u523b
I1479
sV\u8edf
I55
sV\u51e1
I56
sV\u9060
I57
sV\u74e3
I58
sV\u5dba
I1480
sV\u77e5
I60
sV\u9664
I61
sV\u916c
I2834
sV\u7de9
I62
sV\u5c68
I63
sV\u7f6a
I64
sV\u63ed
I65
sV\u8870
I66
sV\u6cf3
I67
sV\u6b72
I68
sV\u4ff5
I69
sV\u8e74
I70
sV\u5176
I71
sV\u75f9
I72
sV\u78fb
I73
sV\u977a
I74
sV\u9bfd
I75
sV\u6101
I76
sV\u8403
I77
sV\u9a6a
I78
sV\u7f79
I4101
sV\u6684
I79
sV\u8986
I80
sV\u6c88
I81
sV\u500b
I82
sV\u530d
I83
sV\u4e43
I1484
sV\u560f
I85
sV\u758e
I86
sV\u9b92
I87
sV\u5f15
I88
sV\u679a
I512
sV\u8b1d
I91
sV\u6a9c
I1434
sV\u6cc4
I1486
sV\u7121
I94
sV\u76a4
I3595
sV\u79a6
I96
sV\u5d29
I97
sV\u5faa
I99
sV\u82ac
I100
sV\u662f
I101
sV\u7a1c
I2239
sV\u68b0
I103
sV\u6bb2
I104
sV\u5237
I106
sV\u51b6
I107
sV\u54b8
I108
sV\u983b
I109
sV\u7dbe
I111
sV\u5fc5
I3323
sV\u6fc2
I2974
sV\u66c4
I113
sV\u8cc8
I115
sV\u904b
I116
sV\u4fca
I117
sV\u934d
I118
sV\u5951
I119
sV\u70f9
I3397
sV\u5bd2
I121
sV\u7f55
I122
sV\u5178
I123
sV\u8559
I124
sV\u885b
I125
sV\u67da
I126
sV\u8adc
I127
sV\u4e5f
I128
sV\u6dde
I129
sV\u53e2
I130
sV\u76e4
I131
sV\u79e6
I132
sV\u5d69
I133
sV\u5ce8
I134
sV\u62ec
I136
sV\u666f
I137
sV\u6f7c
I2958
sV\u6ef4
I139
sV\u541b
I3923
sV\u51f6
I140
sV\u5957
I3814
sV\u57fa
I143
sV\u7b7d
I144
sV\u9e7f
I145
sV\u5dfe
I146
sV\u6583
I147
sV\u8202
I148
sV\u9580
I2961
sV\u8d08
I150
sV\u918b
I151
sV\u4e0a
I152
sV\u528d
I153
sV\u978f
I154
sV\u540e
I1636
sV\u7891
I156
sV\u9910
I157
sV\u7d93
I158
sV\u5e95
I159
sV\u5f14
I160
sV\u6016
I161
sV\u8499
I162
sV\u8518
I163
sV\u861a
I164
sV\u525b
I2677
sV\u8f9f
I166
sV\u7384
I2962
sV\u79b1
I2248
sV\u95a3
I170
sV\u56a5
I171
sV\u7826
I172
sV\u5ca9
I173
sV\u9d28
I174
sV\u61ab
I175
sV\u82ad
I176
sV\u8cb3
I177
sV\u67af
I178
sV\u6930
I179
sV\u8db3
I180
sV\u4f34
I181
sV\u7538
I182
sV\u59bb
I183
sV\u5abd
I184
sV\u9b3c
I185
sV\u7c3e
I1166
sV\u9748
I3732
sV\u8846
I188
sV\u6cc9
I189
sV\u51cb
I110
sV\u8e4a
I191
sV\u57cf
I192
sV\u58d1
I193
sV\u7950
I194
sV\u9021
I4232
sV\u7f54
I195
sV\u8056
I196
sV\u6add
I197
sV\u8b5c
I198
sV\u6fdf
I199
sV\u6c5e
I200
sV\u90e1
I201
sV\u6c11
I2965
sV\u55e3
I202
sV\u9262
I203
sV\u76e5
I204
sV\u5764
I205
sV\u5be7
I206
sV\u9ce9
I207
sV\u7d68
I208
sV\u7e6a
I209
sV\u62ed
I210
sV\u67ef
I211
sV\u5a3c
I212
sV\u8df3
I1194
sV\u8a72
I214
sV\u5076
I215
sV\u7578
I216
sV\u79fb
I217
sV\u7afd
I218
sV\u5b7c
I219
sV\u5fff
I220
sV\u8001
I221
sV\u8180
I1239
sV\u85ea
I3676
sV\u6d88
I223
sV\u8e8a
I224
sV\u920d
I225
sV\u970f
I226
sV\u58ec
I3678
sV\u9811
I228
sV\u5019
I2969
sV\u5a92
I230
sV\u6096
I231
sV\u8a1d
I232
sV\u7d1b
I2970
sV\u8f1f
I234
sV\u8c9e
I235
sV\u5021
I236
sV\u51a0
I237
sV\u7523
I238
sV\u908a
I4332
sV\u9b27
I240
sV\u812b
I241
sV\u64ae
I242
sV\u8831
I243
sV\u8ab2
I244
sV\u8e35
I245
sV\u5439
I247
sV\u75b8
I248
sV\u7a3d
I249
sV\u7cbe
I250
sV\u81c0
I1451
sV\u8543
I252
sV\u62c2
I253
sV\u87c4
I254
sV\u6b47
I255
sV\u8c49
I256
sV\u73cd
I257
sV\u514b
I258
sV\u4eca
I259
sV\u524d
I260
sV\u574f
I261
sV\u524c
I262
sV\u5851
I263
sV\u99d0
I264
sV\u5e55
I265
sV\u7fd4
I266
sV\u8ef8
I3686
sV\u8459
I268
sV\u58ef
I4179
sV\u8f5f
I269
sV\u8cde
I270
sV\u9061
I271
sV\u59d1
I272
sV\u52e2
I273
sV\u5665
I274
sV\u5de8
I275
sV\u816b
I276
sV\u8cd3
I2264
sV\u676f
I278
sV\u84ee
I279
sV\u6ecb
I4157
sV\u5377
I281
sV\u99a8
I282
sV\u6fd5
I2265
sV\u56fa
I285
sV\u7a7d
I286
sV\u5f7f
I288
sV\u7cfe
I289
sV\u6200
I291
sV\u8102
I292
sV\u8404
I293
sV\u4e08
I296
sV\u8d0a
I297
sV\u518d
I298
sV\u548f
I299
sV\u970e
I300
sV\u9b91
I301
sV\u9e93
I302
sV\u5802
I3692
sV\u832f
I304
sV\u851a
I305
sV\u5c31
I2982
sV\u96a3
I309
sV\u8b20
I3705
sV\u95a5
I310
sV\u78a7
I311
sV\u7b26
I312
sV\u7fa9
I313
sV\u62ab
I314
sV\u5206
I3695
sV\u672e
I316
sV\u7d72
I3078
sV\u6db5
I317
sV\u6c34
I318
sV\u50b7
I319
sV\u7336
I320
sV\u753a
I321
sV\u79bd
I322
sV\u7b8b
I1526
sV\u7f3e
I924
sV\u83c1
I325
sV\u6240
I326
sV\u65c5
I327
sV\u6b46
I329
sV\u8e48
I330
sV\u91cd
I331
sV\u704c
I332
sV\u74cf
I333
sV\u574e
I334
sV\u7272
I3485
sV\u5ed3
I335
sV\u9952
I336
sV\u6adb
I337
sV\u89dd
I338
sV\u4f5e
I339
sV\u93e1
I340
sV\u9291
I1532
sV\u96e3
I342
sV\u5162
I343
sV\u7464
I344
sV\u9310
I1533
sV\u7e3d
I346
sV\u82eb
I347
sV\u81ed
I348
sV\u606c
I2020
sV\u7cca
I2728
sV\u8a70
I350
sV\u8972
I351
sV\u6df5
I352
sV\u6c74
I353
sV\u57f9
I354
sV\u9678
I355
sV\u787c
I356
sV\u6301
I357
sV\u6280
I358
sV\u6182
I359
sV\u6b86
I360
sV\u8f09
I361
sV\u4e88
I28
sV\u8d8a
I363
sV\u540f
I364
sV\u7b11
I365
sV\u5236
I2662
sV\u9f6a
I366
sV\u8017
I368
sV\u8396
I369
sV\u6698
I370
sV\u8a1b
I371
sV\u5321
I372
sV\u52a0
I373
sV\u51a2
I374
sV\u7525
I375
sV\u54a4
I376
sV\u7827
I377
sV\u5ba6
I378
sV\u5f29
I379
sV\u91dc
I3820
sV\u8b66
I2552
sV\u8ab0
I380
sV\u89b2
I381
sV\u6d35
I382
sV\u8cb4
I383
sV\u7037
I388
sV\u9739
I385
sV\u7a3b
I386
sV\u91cb
I190
sV\u78bc
I389
sV\u7c3f
I390
sV\u5e74
I2282
sV\u6643
I391
sV\u81c2
I392
sV\u6545
I393
sV\u84c4
I394
sV\u6591
I3847
sV\u6bc6
I2682
sV\u8f49
I396
sV\u524b
I397
sV\u914d
I398
sV\u6eab
I3479
sV\u57ce
I400
sV\u5b51
I401
sV\u79d2
I402
sV\u634f
I2993
sV\u83d6
I404
sV\u8a5b
I405
sV\u9700
I3156
sV\u88dc
I406
sV\u6c5f
I407
sV\u617e
I3907
sV\u72e0
I408
sV\u9663
I409
sV\u7565
I410
sV\u9867
I411
sV\u5be6
I412
sV\u5f69
I413
sV\u9ee8
I414
sV\u95dc
I4371
sV\u646f
I415
sV\u4e73
I417
sV\u8cf4
I418
sV\u9077
I419
sV\u6728
I3711
sV\u7779
I420
sV\u76f8
I421
sV\u75fa
I422
sV\u597d
I423
sV\u58fc
I283
sV\u6504
I426
sV\u8987
I427
sV\u5080
I2288
sV\u738b
I429
sV\u508d
I430
sV\u7403
I2289
sV\u758f
I432
sV\u986b
I3415
sV\u9b10
I433
sV\u9812
I434
sV\u7c95
I435
sV\u7d14
I436
sV\u6216
I437
sV\u689d
I439
sV\u4e1e
I440
sV\u5320
I441
sV\u57a3
I442
sV\u9022
I443
sV\u79a7
I444
sV\u5feb
I4314
sV\u83ab
I445
sV\u7c2a
I446
sV\u67b3
I1550
sV\u65af
I448
sV\u6fb3
I449
sV\u51b7
I450
sV\u7236
I451
sV\u9738
I452
sV\u943a
I453
sV\u900b
I454
sV\u7dbf
I455
sV\u7e3e
I456
sV\u8340
I457
sV\u7f8a
I2293
sV\u64c5
I459
sV\u6ec9
I460
sV\u4f48
I461
sV\u53cb
I462
sV\u8c4a
I463
sV\u914c
I464
sV\u764e
I465
sV\u5b50
I467
sV\u98a8
I3833
sV\u6f38
I1396
sV\u66d9
I469
sV\u8758
I470
sV\u6bdb
I471
sV\u88dd
I472
sV\u8ddf
I473
sV\u4e5e
I474
sV\u72e1
I475
sV\u5360
I476
sV\u77e3
I477
sV\u54e5
I478
sV\u79e7
I480
sV\u5a66
I481
sV\u666e
I482
sV\u8af1
I483
sV\u8b70
I484
sV\u4ff3
I485
sV\u8872
I486
sV\u6d74
I487
sV\u96f9
I488
sV\u8f15
I2297
sV\u98fd
I490
sV\u5e7e
I491
sV\u6703
I493
sV\u8584
I495
sV\u8907
I496
sV\u4e09
I497
sV\u4f88
I498
sV\u8c8a
I499
sV\u500d
I500
sV\u4fc3
I1557
sV\u968e
I502
sV\u5a11
I503
sV\u9f13
I504
sV\u8b1b
I506
sV\u699c
I509
sV\u4e9e
I510
sV\u53a0
I511
sV\u7425
I513
sV\u95a4
I514
sV\u5927
I515
sV\u5fa8
I517
sV\u632b
I518
sV\u6246
I1561
sV\u61ac
I519
sV\u652f
I520
sV\u66ae
I521
sV\u8a31
I522
sV\u6f33
I523
sV\u5137
I525
sV\u92b6
I526
sV\u9d3f
I527
sV\u9ebe
I528
sV\u6241
I529
sV\u63c0
I530
sV\u5375
I3971
sV\u8e49
I532
sV\u934b
I533
sV\u8cca
I534
sV\u904d
I535
sV\u91cc
I536
sV\u554f
I537
sV\u5bd0
I538
sV\u5c55
I539
sV\u84da
I294
sV\u885d
I541
sV\u4ede
I542
sV\u7261
I543
sV\u73e0
I544
sV\u7763
I545
sV\u5967
I546
sV\u9ae6
I547
sV\u7e69
I548
sV\u9e7d
I549
sV\u5cea
I550
sV\u606d
I551
sV\u8a71
I552
sV\u4f73
I553
sV\u68f2
I554
sV\u5177
I555
sV\u66fe
I3838
sV\u54fa
I556
sV\u7d7f
I557
sV\u8702
I558
sV\u8e87
I559
sV\u748b
I560
sV\u6b0a
I561
sV\u978d
I562
sV\u9283
I3022
sV\u72ac
I2309
sV\u5047
I3656
sV\u9c10
I566
sV\u5893
I567
sV\u5b95
I1238
sV\u7a14
I569
sV\u6697
I570
sV\u6199
I572
sV\u8018
I573
sV\u6c9b
I574
sV\u4f9d
I575
sV\u8fce
I3660
sV\u5420
I1205
sV\u90a3
I577
sV\u6c5a
I1571
sV\u53a5
I579
sV\u5224
I580
sV\u5ea7
I581
sV\u9d26
I582
sV\u64ab
I583
sV\u9b2a
I584
sV\u87ad
I585
sV\u515c
I3744
sV\u68b3
I587
sV\u6bb5
I588
sV\u8a34
I589
sV\u96b7
I590
sV\u9a08
I3025
sV\u71b9
I592
sV\u9038
I593
sV\u7fbd
I594
sV\u7abf
I595
sV\u793e
I596
sV\u85c1
I597
sV\u80c3
I598
sV\u83c5
I599
sV\u4ec7
I600
sV\u6848
I601
sV\u764c
I602
sV\u714e
I603
sV\u7c50
I604
sV\u58d3
I605
sV\u9f52
I606
sV\u6556
I607
sV\u81d9
I608
sV\u8058
I609
sV\u6cdb
I610
sV\u4fdd
I611
sV\u6e5c
I612
sV\u6adf
I613
sV\u95e1
I614
sV\u9762
I615
sV\u53e5
I616
sV\u9264
I617
sV\u7d66
I618
sV\u79e9
I619
sV\u62ef
I621
sV\u616e
I622
sV\u6df1
I623
sV\u6c70
I624
sV\u88f3
I625
sV\u96f7
I626
sV\u7576
I627
sV\u51f9
I628
sV\u7078
I239
sV\u5cfb
I630
sV\u737a
I631
sV\u5ffd
I632
sV\u7e7c
I633
sV\u7aff
I634
sV\u8003
I635
sV\u546a
I1583
sV\u8305
I637
sV\u6284
I638
sV\u4e07
I639
sV\u8888
I640
sV\u8b8a
I641
sV\u970d
I141
sV\u5d11
I644
sV\u5c90
I645
sV\u9813
I646
sV\u5f92
I647
sV\u8617
I648
sV\u8098
I649
sV\u8f1d
I650
sV\u6e9c
I651
sV\u8a1f
I652
sV\u82f1
I1585
sV\u9023
I655
sV\u811a
I656
sV\u7325
I657
sV\u5929
I658
sV\u58a8
I659
sV\u672d
I660
sV\u97f3
I3760
sV\u61ae
I662
sV\u8cb0
I663
sV\u8fb2
I664
sV\u90b8
I666
sV\u9c3b
I667
sV\u98df
I3067
sV\u7a3f
I668
sV\u59be
I669
sV\u84c0
I670
sV\u8043
I1223
sV\u6fca
I672
sV\u8e47
I673
sV\u8dc6
I674
sV\u744b
I675
sV\u7a76
I1589
sV\u96cc
I676
sV\u91ce
I677
sV\u9d51
I678
sV\u9435
I3793
sV\u7fd2
I679
sV\u5b55
I680
sV\u9ad4
I681
sV\u6159
I682
sV\u60d8
I683
sV\u63da
I685
sV\u8f5d
I686
sV\u6a5f
I687
sV\u6fe0
I4373
sV\u9951
I688
sV\u9063
I689
sV\u77e2
I690
sg3
I0
sV\u5de6
I692
sV\u901a
I3172
sV\u70fd
I1591
sV\u676d
I694
sV\u826f
I695
sV\u6cf0
I696
sV\u7bd2
I697
sV\u85ff
I3764
sV\u9677
I699
sV\u7a7f
I700
sV\u6500
I4115
sV\u6602
I702
sV\u6960
I3477
sV\u71c1
I2257
sV\u958b
I704
sV\u6a0a
I705
sV\u968d
I706
sV\u642c
I707
sV\u5c91
I708
sV\u7d10
I1355
sV\u5993
I710
sV\u7a95
I711
sV\u90af
I3045
sV\u6797
I713
sV\u6416
I714
sV\u621a
I715
sV\u6e9d
I716
sV\u8f1c
I717
sV\u6fb1
I718
sV\u9324
I719
sV\u5fa7
I720
sV\u78a9
I721
sV\u9928
I722
sV\u65ab
I723
sV\u672c
I724
sV\u6adc
I725
sV\u7cf2
I3276
sV\u4e32
I726
sV\u8e5f
I727
sV\u7436
I728
sV\u70b9
I729
sV\u7dbb
I730
sV\u523a
I731
sV\u5f3c
I732
sV\u5bbf
I733
sV\u7834
I3047
sV\u64c1
I735
sV\u61c3
I736
sV\u6642
I737
sV\u6fc7
I738
sV\u8c46
I739
sV\u56cd
I438
sV\u73cf
I741
sV\u904e
I742
sV\u7d50
I743
sV\u59d3
I744
sV\u7e52
I1666
sV\u5b54
I746
sV\u5078
I3665
sV\u6158
I747
sV\u8ddb
I20
sV\u862d
I794
sV\u4f5c
I749
sV\u6c7a
I3762
sV\u54e1
I750
sV\u91e3
I751
sV\u9662
I752
sV\u7968
I754
sV\u59e6
I755
sV\u86ed
I756
sV\u83ef
I757
sV\u8d70
I758
sV\u8e72
I759
sV\u8b74
I760
sV\u57f7
I761
sV\u5476
I762
sV\u50f9
I763
sV\u9178
I764
sV\u7dfb
I765
sV\u6b3e
I3049
sV\u5f7c
I767
sV\u9099
I4195
sV\u587e
I768
sV\u8205
I770
sV\u6c86
I771
sV\u8988
I772
sV\u760d
I773
sV\u578c
I774
sV\u530f
I775
sV\u708e
I776
sV\u5c11
I777
sV\u4e19
I1609
sV\u9913
I779
sV\u9e92
I780
sV\u7b94
I781
sV\u6717
I782
sV\u5f98
I3777
sV\u8019
I784
sV\u6d1b
I785
sV\u829a
I786
sV\u8f9c
I788
sV\u889e
I789
sV\u8490
I3919
sV\u5225
I790
sV\u5f27
I791
sV\u59a8
I792
sV\u7aaa
I793
sV\u662d
I887
sV\u632f
I795
sV\u7bc9
I3054
sV\u6933
I797
sV\u6eb2
I798
sV\u6a35
I799
sV\u7737
I800
sV\u6a48
I801
sV\u99d9
I3885
sV\u9d3b
I802
sV\u5e3d
I803
sV\u58be
I804
sV\u63c4
I805
sV\u964d
I807
sV\u5c51
I809
sV\u7256
I2760
sV\u9a55
I810
sV\u70cf
I811
sV\u8757
I571
sV\u84d6
I813
sV\u6059
I814
sV\u81d8
I815
sV\u4e5d
I816
sV\u8fd1
I3059
sV\u96e2
I818
sV\u53e4
I819
sV\u9f67
I479
sV\u59e8
I821
sV\u7aea
I822
sV\u87ec
I823
sV\u4ef2
I825
sV\u8a75
I826
sV\u9777
I827
sV\u51f8
I829
sV\u5e7d
I830
sV\u7ffc
I831
sV\u98fe
I832
sV\u6f06
I834
sV\u6b89
I835
sV\u8a08
I836
sV\u968b
I837
sV\u540c
I838
sV\u908f
I839
sV\u99ac
I3789
sV\u5f91
I841
sV\u7e10
I842
sV\u7a93
I843
sV\u7d12
I844
sV\u4e9b
I845
sV\u611a
I846
sV\u5edb
I3065
sV\u689f
I848
sV\u7704
I2358
sV\u7620
I850
sV\u52a3
I851
sV\u51a5
I853
sV\u5024
I854
sV\u7ca7
I855
sV\u5f26
I856
sV\u66ab
I857
sV\u592a
I858
sV\u842c
I859
sV\u80af
I860
sV\u8fb1
I861
sV\u8e30
I862
sV\u6ab3
I863
sV\u6d32
I155
sV\u88df
I865
sV\u73b9
I866
sV\u5238
I867
sV\u9ebb
I868
sV\u513a
I869
sV\u5dbd
I870
sV\u5c3c
I871
sV\u5b3e
I872
sV\u8e0a
I873
sV\u8cc7
I874
sV\u4f46
I875
sV\u8a48
I876
sV\u96cb
I877
sV\u694a
I878
sV\u75cd
I879
sV\u50cf
I880
sV\u9ad3
I881
sV\u99d5
I883
sV\u9854
I884
sV\u6756
I885
sV\u6258
I886
sV\u615a
I852
sV\u8ddd
I888
sV\u68df
I889
sV\u7562
I882
sV\u71e5
I891
sV\u7ce7
I892
sV\u5f66
I1174
sV\u5be9
I894
sV\u9f66
I893
sV\u85ed
I910
sV\u846c
I897
sV\u636e
I898
sV\u4ff1
I899
sV\u7be9
I900
sV\u96dc
I3959
sV\u653f
I3798
sV\u74f7
I902
sV\u5efb
I904
sV\u5dfd
I957
sV\u5eda
I3534
sV\u6f14
I2370
sV\u596a
I895
sV\u8105
I908
sV\u4f86
I909
sV\u65ed
I896
sV\u548c
I911
sV\u900f
I912
sV\u5f11
I913
sV\u5915
I914
sV\u6417
I915
sV\u6518
I916
sV\u6298
I917
sV\u6e1b
I918
sV\u819a
I919
sV\u5169
I1861
sV\u881f
I921
sV\u6b9e
I922
sV\u6ff1
I923
sV\u70a4
I925
sV\u7c27
I926
sV\u9aa8
I927
sV\u5446
I4012
sV\u79aa
I928
sV\u852d
I929
sV\u602f
I930
sV\u6f31
I931
sV\u6db2
I1134
sV\u88b4
I933
sV\u5339
I934
sV\u71ba
I935
sV\u5686
I4331
sV\u6243
I936
sV\u65c2
I937
sV\u80c4
I938
sV\u6b49
I1196
sV\u964b
I940
sV\u5121
I941
sV\u75a3
I942
sV\u504f
I943
sV\u5dd2
I945
sV\u5955
I1232
sV\u58d4
I947
sV\u8457
I948
sV\u62d8
I949
sV\u6e5b
I950
sV\u8cdc
I951
sV\u7761
I1266
sV\u56e0
I953
sV\u75e2
I1350
sV\u7165
I1279
sV\u7b69
I1288
sV\u59ea
I958
sV\u656d
I1304
sV\u84ec
I1309
sV\u806f
I1314
sV\u63ee
I962
sV\u4ef0
I963
sV\u8a73
I964
sV\u6975
I965
sV\u88f4
I966
sV\u97f6
I967
sV\u52f8
I968
sV\u5e7b
I969
sV\u51fa
I970
sV\u75d4
I1638
sV\u6700
I973
sV\u6383
I974
sV\u8085
I975
sV\u4efb
I3082
sV\u6d87
I977
sV\u578b
I978
sV\u5ad6
I3815
sV\u718f
I979
sV\u520e
I980
sV\u6582
I907
sV\u5914
I982
sV\u6597
I983
sV\u8165
I3141
sV\u8299
I984
sV\u6e58
I4125
sV\u4f9b
I985
sV\u8c9d
I986
sV\u6a1e
I987
sV\u7720
I988
sV\u7422
I3064
sV\u5c07
I3088
sV\u7aa9
I992
sV\u653e
I3320
sV\u582a
I994
sV\u64ad
I995
sV\u852c
I996
sV\u622e
I997
sV\u8eb1
I998
sV\u68b5
I999
sV\u5636
I1000
sV\u9eb5
I2384
sV\u76de
I3821
sV\u79bf
I1003
sV\u614b
I2465
sV\u598a
I3092
sV\u60c5
I1005
sV\u6144
I1006
sV\u6dc7
I1007
sV\u57cb
I1009
sV\u754c
I1010
sV\u91cf
I1011
sV\u9ed1
I1012
sV\u7f50
I1013
sV\u5bd3
I1014
sV\u58d5
I1015
sV\u5954
I1016
sV\u65d7
I1017
sV\u62d9
I1018
sV\u4fdb
I1019
sV\u805a
I1020
sV\u6d5c
I1021
sV\u8a5e
I1022
sV\u76e1
I1023
sV\u4f11
I3095
sV\u53e3
I1025
sV\u7462
I1026
sV\u50e5
I1027
sV\u7167
I1648
sV\u5de7
I1029
sV\u8e10
I3030
sV\u656c
I1030
sV\u626e
I1031
sV\u4f70
I1349
sV\u6c72
I1033
sV\u88f5
I1034
sV\u8974
I1035
sV\u9676
I1036
sV\u72f9
I1037
sV\u7378
I1038
sV\u7ffb
I1039
sV\u5c3e
I186
sV\u5cfd
I1041
sV\u59ff
I1042
sV\u8303
I1044
sV\u8005
I1045
sV\u78e8
I4042
sV\u4e86
I1046
sV\u570b
I1047
sV\u540d
I1048
sV\u5e11
I1049
sV\u5f90
I1050
sV\u7c92
I1051
sV\u6696
I1053
sV\u6398
I1054
sV\u8f1b
I1055
sV\u609a
I1056
sV\u7e1b
I3101
sV\u8a9e
I1058
sV\u7621
I1059
sV\u6271
I1651
sV\u5323
I1061
sV\u619a
I1062
sV\u51a4
I1063
sV\u5ea6
I1064
sV\u5a29
I1065
sV\u672b
I1067
sV\u6846
I1068
sV\u642d
I1069
sV\u65ac
I1070
sV\u812f
I1071
sV\u82ae
I1072
sV\u8fb0
I1073
sV\u8b33
I1074
sV\u69b4
I1075
sV\u7537
I1076
sV\u5239
I1077
sV\u9f3b
I1078
sV\u5dbc
I1079
sV\u87c0
I1080
sV\u4ec6
I1081
sV\u72ce
I1083
sV\u7e79
I1656
sV\u59d4
I1085
sV\u6557
I1086
sV\u66d6
I2089
sV\u8259
I1088
sV\u6bba
I3940
sV\u4f5b
I1089
sV\u80da
I1090
sV\u6c5d
I1091
sV\u98ef
I3098
sV\u895f
I1092
sV\u6ade
I1093
sV\u7661
I1094
sV\u57e0
I1095
sV\u74e2
I1096
sV\u5065
I1097
sV\u5950
I1098
sV\u7a69
I1099
sV\u9be8
I1100
sV\u65ec
I1101
sV\u62ee
I2166
sV\u8ff0
I1103
sV\u8e76
I4322
sV\u89f4
I1104
sV\u9577
I1105
sV\u96f6
I1106
sV\u7279
I1107
sV\u53f8
I1108
sV\u76fe
I1663
sV\u797f
I1110
sV\u8981
I1111
sV\u6c83
I1112
sV\u8b02
I1113
sV\u8106
I1114
sV\u5e8f
I1116
sV\u5d0e
I1117
sV\u5191
I1118
sV\u9010
I1119
sV\u905e
I4030
sV\u5614
I1120
sV\u6a97
I1121
sV\u8d99
I1122
sV\u809b
I1123
sV\u821c
I1124
sV\u5730
I4276
sV\u5820
I1125
sV\u7687
I3841
sV\u72a7
I1127
sV\u7126
I1128
sV\u55a9
I1129
sV\u88ab
I1130
sV\u6bad
I1131
sV\u6eaf
I1132
sV\u67b5
I1135
sV\u5c38
I1138
sV\u5f3a
I1139
sV\u76bf
I1140
sV\u553e
I1141
sV\u69c1
I1142
sV\u8840
I1143
sV\u8cc3
I1144
sV\u8fc5
I1145
sV\u8e44
I1146
sV\u62c7
I1147
sV\u8146
I1148
sV\u85c9
I1149
sV\u78cb
I1150
sV\u5ecf
I1151
sV\u91d1
I1152
sV\u9050
I1153
sV\u5352
I1154
sV\u80db
I1155
sV\u60b2
I1620
sV\u86df
I1156
sV\u655e
I1157
sV\u7591
I1672
sV\u81ba
I3116
sV\u92e7
I1160
sV\u5468
I1162
sV\u576a
I1163
sV\u6eef
I1164
sV\u6d6e
I1165
sV\u8070
I2580
sV\u6372
I1167
sV\u67f5
I1168
sV\u6674
I1169
sV\u9df9
I1170
sV\u9c78
I1171
sV\u50fb
I1172
sV\u56ff
I1173
sV\u65d5
I3596
sV\u6b82
I1175
sV\u8f05
I1176
sV\u5e97
I3850
sV\u8207
I1178
sV\u6488
I1180
sV\u5999
I3852
sV\u7413
I1182
sV\u9694
I1184
sV\u8a17
I1185
sV\u8996
I1186
sV\u6d19
I1187
sV\u6c98
I1188
sV\u661f
I1190
sV\u5ba2
I1191
sV\u9ea4
I1192
sV\u54a8
I1193
sV\u6df3
I213
sV\u6e2f
I1195
sV\u53ad
I2245
sV\u8b49
I939
sV\u66b4
I1197
sV\u9a37
I1198
sV\u7d39
I1199
sV\u5cb8
I1200
sV\u503b
I1201
sV\u963f
I1202
sV\u75be
I1203
sV\u8941
I1204
sV\u6ec4
I1206
sV\u8247
I769
sV\u81c6
I1208
sV\u8549
I1209
sV\u7f77
I2725
sV\u584b
I1210
sV\u7b4d
I1211
sV\u5acc
I1212
sV\u9818
I3853
sV\u904f
I1213
sV\u69d6
I1214
sV\u6d59
I1215
sV\u4fda
I2912
sV\u62dc
I1217
sV\u865f
I1218
sV\u4f51
I3130
sV\u5be2
I1220
sV\u7267
I1221
sV\u71e6
I1222
sV\u54e8
I1224
sV\u886b
I1225
sV\u6e6f
I1226
sV\u6dee
I1227
sV\u60f0
I1228
sV\u92fc
I3010
sV\u6775
I1229
sV\u66f4
I1230
sV\u7d79
I1231
sV\u7955
I946
sV\u537d
I1233
sV\u72fc
I1234
sV\u55fe
I1235
sV\u6881
I1236
sV\u6a02
I1237
sV\u8006
I168
sV\u660a
I1240
sV\u5b0c
I1241
sV\u5c0e
I1242
sV\u5091
I1243
sV\u67fb
I4324
sV\u9593
I1244
sV\u9695
I1245
sV\u6816
I1246
sV\u6c99
I1247
sV\u6e1a
I1248
sV\u829d
I1249
sV\u879f
I1250
sV\u58a1
I1251
sV\u9920
I1252
sV\u9ea5
I1253
sV\u5026
I1254
sV\u7528
I1255
sV\u640d
I3228
sV\u962a
I1256
sV\u8b2c
I1257
sV\u8faf
I1258
sV\u80b1
I1259
sV\u6734
I1260
sV\u7cb9
I1262
sV\u543e
I1264
sV\u88c1
I1265
sV\u9761
I952
sV\u5e8a
I2428
sV\u6ec5
I1268
sV\u8f44
I1269
sV\u84c9
I1270
sV\u6548
I1271
sV\u79cb
I1272
sV\u7b4c
I1273
sV\u50d1
I1274
sV\u59b9
I1694
sV\u95e2
I954
sV\u96d5
I1277
sV\u6bd7
I1278
sV\u5165
I955
sV\u84bb
I3872
sV\u98e1
I1281
sV\u7960
I1282
sV\u7de3
I1283
sV\u5a62
I1284
sV\u9ee5
I1285
sV\u5960
I4252
sV\u966a
I1286
sV\u8aed
I1287
sV\u8b6c
I971
sV\u6fef
I1289
sV\u60f1
I1290
sV\u5b69
I956
sV\u8272
I1292
sV\u8774
I1293
sV\u71fb
I1294
sV\u813e
I3874
sV\u72fd
I1296
sV\u937c
I1297
sV\u97ff
I1298
sV\u747e
I3423
sV\u6f84
I1301
sV\u6307
I1302
sV\u8086
I1303
sV\u856d
I959
sV\u8096
I1305
sV\u7a0d
I1306
sV\u5b8c
I1307
sV\u5f0f
I1308
sV\u64ec
I960
sV\u7011
I1310
sV\u9190
I1311
sV\u7513
I1312
sV\u7292
I1313
sV\u61c7
I1560
sV\u606f
I961
sV\u8b17
I1315
sV\u8896
I1316
sV\u611b
I1317
sV\u671f
I1318
sV\u649e
I1319
sV\u5821
I1320
sV\u5e25
I1321
sV\u7fa4
I1322
sV\u90a6
I1323
sV\u95a8
I1324
sV\u96aa
I1325
sV\u8a2d
I1326
sV\u4f2f
I1327
sV\u6cae
I1328
sV\u6031
I1329
sV\u71c9
I3063
sV\u5df2
I3147
sV\u5c39
I1332
sV\u5db8
I306
sV\u723d
I1334
sV\u6841
I1335
sV\u89c0
I1336
sV\u6ac2
I2916
sV\u4e45
I1338
sV\u4fc4
I1339
sV\u8449
I1341
sV\u994b
I1342
sV\u7a4d
I1343
sV\u5bcc
I1344
sV\u7051
I1345
sV\u71d0
I1346
sV\u5553
I1347
sV\u52d2
I1348
sV\u6dd8
I1351
sV\u83dc
I1352
sV\u675f
I1353
sV\u5861
I1354
sV\u9ae2
I524
sV\u7469
I1357
sV\u96ea
I1358
sV\u8a6d
I1359
sV\u6bec
I1360
sV\u6f6f
I1361
sV\u6cee
I1362
sV\u72d9
I3985
sV\u67f4
I1364
sV\u5c79
I1365
sV\u5efa
I1366
sV\u727d
I1367
sV\u777f
I1368
sV\u7f70
I3213
sV\u8a00
I1371
sV\u8d85
I1372
sV\u8087
I1373
sV\u8700
I1374
sV\u6789
I1375
sV\u798d
I1376
sV\u980c
I1377
sV\u9f0e
I1378
sV\u9210
I1299
sV\u7693
I1380
sV\u5112
I1381
sV\u8897
I135
sV\u6b16
I3161
sV\u6085
I384
sV\u629b
I1385
sV\u819d
I1386
sV\u801c
I1387
sV\u649f
I1388
sV\u671e
I1389
sV\u7ba1
I1390
sV\u5a20
I1391
sV\u5922
I1392
sV\u5c24
I1393
sV\u9326
I1394
sV\u8caf
I1395
sV\u965c
I3889
sV\u6230
I1397
sV\u5fb9
I1399
sV\u5e38
I1400
sV\u7d3a
I1401
sV\u51bd
I1402
sV\u903c
I1403
sV\u74bf
I1404
sV\u6bc1
I1405
sV\u6de1
I3892
sV\u5b87
I2359
sV\u6942
I1407
sV\u60c7
I1408
sV\u7c60
I1716
sV\u7acb
I1410
sV\u984c
I1411
sV\u5f4e
I1412
sV\u969c
I3925
sV\u5152
I1413
sV\u75d5
I1414
sV\u58fb
I1415
sV\u68d7
I1416
sV\u4e58
I1417
sV\u62db
I1418
sV\u6d5a
I1419
sV\u675e
I1420
sV\u5be1
I1421
sV\u5ee3
I1422
sV\u5962
I1423
sV\u5de5
I1424
sV\u5c64
I1425
sV\u50e7
I1426
sV\u5366
I1427
sV\u77e9
I1428
sV\u5668
I1429
sV\u8aeb
I1430
sV\u756a
I1431
sV\u6cef
I1432
sV\u6f6e
I1433
sV\u83f1
I4202
sV\u532a
I1688
sV\u66f3
I1435
sV\u9c12
I981
sV\u8f3f
I2459
sV\u9858
I3886
sV\u5e78
I1439
sV\u52fb
I1440
sV\u5cbe
I4189
sV\u51fd
I1442
sV\u907c
I1443
sV\u777e
I1445
sV\u8b01
I1446
sV\u6a80
I1447
sV\u4e03
I1448
sV\u8d05
I1449
sV\u7280
I3233
sV\u6709
I1452
sV\u6688
I1453
sV\u7a0b
I1454
sV\u788c
I1455
sV\u5c0f
I1456
sV\u7f8e
I1457
sV\u5192
I1458
sV\u7515
I1459
sV\u6817
I1460
sV\u6b96
I1461
sV\u821b
I1462
sV\u8822
I3707
sV\u8f9b
I1464
sV\u67c4
I1465
sV\u7aa0
I1466
sV\u7e23
I1467
sV\u701a
I3128
sV\u5027
I1469
sV\u7729
I1470
sV\u96a8
I1471
sV\u55aa
I1472
sV\u4fae
I19
sV\u8331
I1474
sV\u61b2
I1475
sV\u84b4
I1476
sV\u5bb6
I1477
sV\u5eb8
I1478
sV\u723b
I54
sV\u7dba
I59
sV\u914b
I1482
sV\u743f
I1483
sV\u6e43
I84
sV\u8eca
I1485
sV\u8cc4
I93
sV\u7c64
I4171
sV\u63c6
I1487
sV\u6749
I1488
sV\u7fce
I1489
sV\u5351
I1490
sV\u72d0
I1491
sV\u71d2
I1492
sV\u74d4
I1493
sV\u8857
I1494
sV\u6bd6
I1495
sV\u4ed8
I1496
sV\u6dda
I1497
sV\u9918
I3990
sV\u60dc
I1498
sV\u7ae0
I1499
sV\u5e63
I1500
sV\u73e6
I1502
sV\u9769
I1503
sV\u96e8
I1504
sV\u6a6b
I1505
sV\u6e26
I3175
sV\u696d
I1507
sV\u4fee
I1508
sV\u6673
I1510
sV\u61f2
I1511
sV\u6575
I1512
sV\u64f4
I1513
sV\u5bf6
I1514
sV\u5f79
I1515
sV\u7e55
I1516
sV\u9dfa
I1517
sV\u717d
I1518
sV\u947f
I1519
sV\u8fd4
I2474
sV\u8b00
I1521
sV\u4f83
I1522
sV\u5357
I2475
sV\u6689
I1524
sV\u6708
I1525
sV\u5b8b
I323
sV\u840a
I1527
sV\u788d
I1528
sV\u990c
I1529
sV\u7d8f
I1530
sV\u652c
I1531
sV\u5291
I341
sV\u5310
I345
sV\u5793
I349
sV\u5012
I1535
sV\u5495
I1536
sV\u8a16
I1537
sV\u639b
I1538
sV\u809d
I1539
sV\u659f
I1540
sV\u661e
I290
sV\u7b20
I1542
sV\u7ca5
I1543
sV\u6607
I1734
sV\u5728
I1545
sV\u742a
I425
sV\u559d
I4130
sV\u6daf
I1547
sV\u62b1
I1369
sV\u7109
I3912
sV\u87b3
I447
sV\u6f5f
I1551
sV\u5a36
I1552
sV\u7f38
I1553
sV\u53bb
I1554
sV\u5c3a
I1555
sV\u513c
I1556
sV\u6fc3
I501
sV\u6842
I505
sV\u65b7
I3183
sV\u81c7
I367
sV\u51e0
I643
sV\u66c9
I1562
sV\u90ed
I2832
sV\u994c
I1563
sV\u4e8c
I3916
sV\u7350
I142
sV\u97d3
I1565
sV\u7554
I1566
sV\u9640
I3050
sV\u8a56
I1567
sV\u4ed9
I1568
sV\u6f58
I1569
sV\u63db
I1570
sV\u8c5a
I578
sV\u865e
I1573
sV\u5ae1
I1574
sV\u7b60
I1575
sV\u7fe3
I1576
sV\u9ce5
I1577
sV\u71e7
I1578
sV\u9266
I3335
sV\u96e9
I1580
sV\u7768
I1581
sV\u6beb
I1582
sV\u946a
I636
sV\u8def
I1584
sV\u62f1
I654
sV\u67f3
I1586
sV\u8072
I1587
sV\u6574
I1588
sV\u7de8
I890
sV\u9c7a
I1590
sV\u90fd
I693
sV\u517c
I1592
sV\u75ff
I1593
sV\u767e
I1594
sV\u8b80
I1595
sV\u8f03
I1596
sV\u8882
I1597
sV\u6c05
I1598
sV\u8107
I1599
sV\u7740
I3189
sV\u7b0b
I1601
sV\u53c3
I3190
sV\u5211
I1604
sV\u7919
I3922
sV\u5713
I1606
sV\u9594
I1608
sV\u6e19
I778
sV\u831b
I1610
sV\u54ee
I2488
sV\u601d
I1611
sV\u819c
I1612
sV\u8b9a
I1749
sV\u9127
I1615
sV\u97a8
I1616
sV\u4eae
I1617
sV\u6231
I1618
sV\u80b2
I864
sV\u621f
I1751
sV\u5937
I1622
sV\u733b
I1623
sV\u5cba
I1624
sV\u97cb
I1625
sV\u4f43
I1626
sV\u88c2
I1627
sV\u8377
I2492
sV\u6147
I1629
sV\u6649
I1630
sV\u64cd
I3199
sV\u7b4b
I1632
sV\u64ca
I1633
sV\u984d
I1634
sV\u53d6
I2607
sV\u9ece
I1635
sV\u7455
I1637
sV\u95d4
I972
sV\u6957
I1639
sV\u8ad6
I1640
sV\u4e59
I1641
sV\u6fd8
I1642
sV\u605d
I1643
sV\u61dc
I1644
sV\u7a61
I1645
sV\u98e2
I1646
sV\u5c65
I1647
sV\u5167
I1028
sV\u7669
I1649
sV\u8b6b
I1650
sV\u8271
I1060
sV\u6773
I1652
sV\u8475
I1653
sV\u65f4
I1654
sV\u7af6
I1655
sV\u5e79
I1084
sV\u88d5
I3203
sV\u737b
I1658
sV\u707d
I1660
sV\u71fc
I1661
sV\u757f
I1662
sV\u9954
I1398
sV\u6883
I1115
sV\u6f02
I1665
sV\u6687
I1667
sV\u5200
I2496
sV\u9f8d
I1669
sV\u5e0c
I1670
sV\u790e
I1671
sV\u9591
I1158
sV\u5410
I1673
sV\u5712
I1674
sV\u9214
I1675
sV\u8d16
I1676
sV\u8b1a
I2231
sV\u679d
I1678
sV\u6fdb
I2051
sV\u829f
I1680
sV\u7531
I3936
sV\u78a3
I1682
sV\u5ba5
I1683
sV\u96a7
I1684
sV\u74b0
I3937
sV\u5028
I1686
sV\u6cab
I745
sV\u732a
I1179
sV\u8fad
I1689
sV\u6e2c
I1690
sV\u60b3
I1691
sV\u6234
I1692
sV\u5eb7
I1693
sV\u79b9
I1275
sV\u9838
I1695
sV\u77bd
I1696
sV\u763c
I1697
sV\u6c40
I1700
sV\u6bc5
I1701
sV\u6a44
I1702
sV\u66c7
I508
sV\u61c9
I1704
sV\u918d
I1705
sV\u834a
I1706
sV\u5fcd
I1707
sV\u63d6
I2363
sV\u594e
I1708
sV\u5c6c
I4178
sV\u8cab
I1687
sV\u5254
I1709
sV\u4ed7
I1710
sV\u8b5a
I1711
sV\u865c
I1712
sV\u82df
I1713
sV\u7164
I1714
sV\u5de1
I1715
sV\u5c60
I1409
sV\u5f62
I1717
sV\u5be5
I1718
sV\u76e7
I1719
sV\u7566
I1720
sV\u9dc4
I3803
sV\u978b
I1721
sV\u7e93
I1722
sV\u696e
I1723
sV\u65f1
I1724
sV\u60f3
I1725
sV\u6912
I2504
sV\u5ef7
I1727
sV\u7d76
I1728
sV\u5b7a
I1501
sV\u767c
I1730
sV\u52ff
I1731
sV\u6f82
I1732
sV\u6a84
I1541
sV\u8607
I1544
sV\u6109
I1736
sV\u5c0b
I1737
sV\u838a
I1558
sV\u7586
I3911
sV\u7e8c
I1739
sV\u9a0f
I1740
sV\u798e
I1438
sV\u7511
I1742
sV\u5490
I1743
sV\u4fc2
I1771
sV\u5315
I1745
sV\u6e17
I1746
sV\u6566
I3896
sV\u8919
I1747
sV\u9b45
I3944
sV\u826e
I1008
sV\u671d
I1750
sV\u821f
I1621
sV\u7d21
I1753
sV\u5aa4
I1754
sV\u7627
I1755
sV\u6f70
I1032
sV\u90a8
I1757
sV\u4eac
I1758
sV\u69ae
I1759
sV\u64b0
I1685
sV\u8033
I1761
sV\u8335
I1762
sV\u5269
I4317
sV\u5e37
I1763
sV\u543b
I1764
sV\u56bc
I1765
sV\u71be
I1767
sV\u6d41
I1768
sV\u8cc0
I1769
sV\u6843
I1770
sV\u8fc2
I1744
sV\u8ac4
I1752
sV\u65c6
I1773
sV\u4f4d
I3950
sV\u5c4b
I1775
sV\u83ca
I1776
sV\u6ecc
I3951
sV\u9053
I1779
sV\u6155
I4233
sV\u8a13
I3097
sV\u68d8
I1781
sV\u645b
I828
sV\u66dc
I1783
sV\u7d61
I1785
sV\u7ce0
I1786
sV\u907a
I1040
sV\u755c
I4305
sV\u9169
I1189
sV\u90e8
I1789
sV\u8c6b
I1790
sV\u53ea
I1791
sV\u6f6d
I1792
sV\u5fa9
I1793
sV\u8073
I1794
sV\u87f2
I1795
sV\u99ff
I1796
sV\u5e77
I1797
sV\u547b
I1798
sV\u5bfa
I1799
sV\u8877
I3685
sV\u82ab
I1800
sV\u82b1
I1548
sV\u746a
I1802
sV\u8a85
I1803
sV\u8b04
I1804
sV\u6787
I1805
sV\u8089
I1806
sV\u8108
I1807
sV\u820a
I1808
sV\u5b8f
I1810
sV\u5510
I1811
sV\u6f97
I1812
sV\u88d8
I1813
sV\u9005
I3222
sV\u659b
I1815
sV\u669d
I1816
sV\u845b
I1782
sV\u5ca1
I1818
sV\u7d20
I1819
sV\u59a3
I1820
sV\u5d07
I3224
sV\u5426
I1822
sV\u722a
I1823
sV\u4ead
I1824
sV\u6f2c
I1825
sV\u6baf
I1826
sV\u682e
I2097
sV\u81b3
I1828
sV\u62b5
I1829
sV\u5fb7
I1830
sV\u95bb
I1831
sV\u773c
I1832
sV\u703e
I1833
sV\u6cc1
I1834
sV\u9d61
I1835
sV\u69c3
I1836
sV\u8ce0
I3962
sV\u6148
I1838
sV\u7dcb
I1839
sV\u9ecd
I1841
sV\u5f4c
I1842
sV\u984e
I1843
sV\u7652
I1844
sV\u52d5
I1845
sV\u5354
I1846
sV\u4fd7
I1847
sV\u88d9
I1848
sV\u675c
I1849
sV\u805e
I1850
sV\u9d60
I1851
sV\u5e62
I1852
sV\u7ae5
I1853
sV\u5b64
I1854
sV\u9f90
I3602
sV\u5168
I1856
sV\u8deb
I824
sV\u526a
I1858
sV\u6bef
I1859
sV\u53e6
I1572
sV\u7169
I1788
sV\u81f3
I1862
sV\u61be
I3943
sV\u8cbf
I2527
sV\u58f9
I2332
sV\u5978
I1865
sV\u7a7a
I1866
sV\u577c
I1867
sV\u53c8
I4364
sV\u4e82
I1869
sV\u796d
I3677
sV\u8188
I1870
sV\u7d0b
I1871
sV\u628a
I1872
sV\u5f8c
I1873
sV\u7b0f
I1874
sV\u788e
I1875
sV\u5411
I1876
sV\u95be
I3934
sV\u9192
I4319
sV\u9394
I1877
sV\u8398
I833
sV\u6998
I2437
sV\u679c
I1880
sV\u9444
I2533
sV\u7c21
I1882
sV\u7da0
I1883
sV\u5a25
I1884
sV\u5ba4
I1885
sV\u9727
I1886
sV\u5029
I1887
sV\u52aa
I1888
sV\u4e2d
I1889
sV\u8431
I1890
sV\u65b0
I1891
sV\u8235
I1892
sV\u5023
I3808
sV\u5f37
I1893
sV\u9839
I1894
sV\u9375
I1895
sV\u7aba
I1896
sV\u533f
I1897
sV\u50be
I1898
sV\u6c41
I1899
sV\u97a0
I1900
sV\u51cd
I1902
sV\u7bc4
I4081
sV\u518a
I4192
sV\u5fcc
I1903
sV\u9b4f
I1904
sV\u78ce
I1905
sV\u9451
I1906
sV\u76d2
I1907
sV\u53d4
I1908
sV\u4f57
I1909
sV\u8859
I1910
sV\u6025
I3241
sV\u6ada
I1911
sV\u665d
I1912
sV\u80de
I1913
sV\u7de0
I1914
sV\u5ee2
I1915
sV\u9a65
I1916
sV\u7be4
I1917
sV\u74e6
I1918
sV\u9069
I1919
sV\u5bb4
I2984
sV\u8d6b
I1920
sV\u92ea
I1921
sV\u4e6d
I1922
sV\u6fec
I1923
sV\u8b6f
I1924
sV\u68ee
I1925
sV\u8471
I1926
sV\u65f0
I1927
sV\u6173
I1928
sV\u66f2
I1929
sV\u63f4
I1930
sV\u5f77
I1931
sV\u9cf6
I1161
sV\u5879
I1933
sV\u59f8
I1934
sV\u7afa
I1935
sV\u967d
I1936
sV\u537f
I1937
sV\u6f81
I1938
sV\u4e00
I1939
sV\u8389
I1940
sV\u6208
I29
sV\u810a
I1942
sV\u7791
I1943
sV\u5293
I1136
sV\u5195
I1945
sV\u9014
I1946
sV\u78fe
I1948
sV\u6012
I3699
sV\u8a18
I1949
sV\u859d
I1950
sV\u641c
I1951
sV\u609f
I1952
sV\u6b04
I1953
sV\u5fa1
I1954
sV\u7d22
I1955
sV\u59a5
I1956
sV\u5824
I1957
sV\u74a7
I1958
sV\u73a9
I1959
sV\u4eab
I1960
sV\u512a
I1961
sV\u68af
I1962
sV\u6089
I1963
sV\u82b3
I1964
sV\u81b5
I1965
sV\u6108
I1966
sV\u5bb9
I1967
sV\u96bb
I1969
sV\u793a
I1970
sV\u95bd
I1971
sV\u543c
I1972
sV\u6fc1
I1974
sV\u53e1
I1975
sV\u6ac3
I1976
sV\u620a
I1977
sV\u64c7
I1978
sV\u6746
I1979
sV\u6248
I1980
sV\u6339
I3113
sV\u5dcd
I1981
sV\u7c4c
I1982
sV\u9b4e
I1983
sV\u9650
I1984
sV\u71d5
I1985
sV\u9054
I1986
sV\u6cd7
I1987
sV\u8594
I3774
sV\u6a58
I820
sV\u86db
I1989
sV\u695a
I1990
sV\u85dd
I1991
sV\u60df
I1992
sV\u7fe1
I1993
sV\u7ae3
I1995
sV\u7d62
I1996
sV\u5766
I1997
sV\u53e9
I1998
sV\u8eeb
I1999
sV\u516a
I2400
sV\u8c6c
I2001
sV\u88ef
I2002
sV\u67f1
I2004
sV\u62f3
I2005
sV\u6572
I2006
sV\u96fb
I2007
sV\u797a
I3140
sV\u55fd
I2009
sV\u547c
I2010
sV\u50ff
I2011
sV\u937e
I2012
sV\u6f01
I2013
sV\u8a03
I2014
sV\u6905
I2015
sV\u6309
I2016
sV\u618a
I531
sV\u7d0d
I2018
sV\u9711
I2021
sV\u7690
I2022
sV\u5213
I2023
sV\u9592
I2024
sV\u9115
I2025
sV\u5094
I2026
sV\u74bd
I3753
sV\u8b19
I2027
sV\u8a98
I2028
sV\u651d
I2029
sV\u859b
I2030
sV\u839e
I2031
sV\u5ea0
I2032
sV\u7da2
I2033
sV\u7329
I2034
sV\u6e2b
I2035
sV\u705d
I3819
sV\u8cac
I2036
sV\u6bae
I287
sV\u6731
I2038
sV\u8abc
I2322
sV\u6a23
I4203
sV\u60b4
I1698
sV\u7fb6
I2040
sV\u7b39
I2041
sV\u9ab8
I2042
sV\u963b
I2043
sV\u6f41
I2044
sV\u8ec0
I2045
sV\u68c4
I2046
sV\u87c6
I2047
sV\u6349
I2048
sV\u62c8
I2049
sV\u61ca
I2050
sV\u584f
I653
sV\u9751
I2054
sV\u67f9
I2560
sV\u75d2
I2056
sV\u6c57
I2057
sV\u7678
I2058
sV\u865b
I2059
sV\u7686
I4001
sV\u655d
I3444
sV\u9f61
I2062
sV\u5ee0
I2063
sV\u5de2
I2064
sV\u7965
I2065
sV\u58e4
I2066
sV\u754f
I3195
sV\u7426
I2067
sV\u8d6d
I2068
sV\u587c
I2069
sV\u6771
I2070
sV\u66f0
I2071
sV\u6175
I2072
sV\u80f4
I2073
sV\u73ea
I2074
sV\u767b
I2075
sV\u907f
I2077
sV\u73fe
I2078
sV\u8e81
I2079
sV\u6b83
I2080
sV\u622a
I3834
sV\u6885
I2082
sV\u6904
I2083
sV\u8587
I1133
sV\u6606
I2085
sV\u6289
I2140
sV\u6308
I2087
sV\u5f8b
I2088
sV\u96d6
I3938
sV\u798f
I2090
sV\u9a0e
I2091
sV\u79d5
I2092
sV\u5393
I2093
sV\u5114
I2094
sV\u4e16
I2095
sV\u649d
I2098
sV\u6f5b
I2099
sV\u821e
I2100
sV\u9f20
I2101
sV\u5ba3
I2102
sV\u60da
I2103
sV\u55a7
I2104
sV\u7626
I2105
sV\u52a9
I2106
sV\u9328
I2107
sV\u4f09
I2108
sV\u9632
I4004
sV\u60b5
I2110
sV\u6134
I2111
sV\u5db7
I2112
sV\u5e36
I2113
sV\u77bb
I2114
sV\u54bd
I2115
sV\u723e
I2116
sV\u4ec1
I2117
sV\u6c42
I2118
sV\u8944
I2119
sV\u62c9
I2120
sV\u804a
I2122
sV\u5d4c
I2123
sV\u608c
I2569
sV\u56d1
I2125
sV\u5750
I2126
sV\u50d5
I2127
sV\u5154
I2128
sV\u4e56
I2129
sV\u8b58
I2130
sV\u81df
I2131
sV\u625e
I2132
sV\u5ee1
I2133
sV\u8a3a
I4007
sV\u72e9
I2135
sV\u7368
I2136
sV\u8feb
I2137
sV\u8ced
I2138
sV\u6d6c
I2139
sV\u8a6e
I2141
sV\u6770
I2142
sV\u5df7
I2143
sV\u7af9
I2144
sV\u5b78
I2145
sV\u97fb
I2146
sV\u54fd
I2147
sV\u557c
I2148
sV\u727e
I3975
sV\u4e01
I2150
sV\u8cc1
I2151
sV\u8c82
I2152
sV\u8782
I1780
sV\u6388
I2154
sV\u5f0b
I2155
sV\u6396
I2156
sV\u5c0d
I2157
sV\u590f
I2158
sV\u9015
I564
sV\u7194
I2160
sV\u6d17
I2161
sV\u6e96
I2162
sV\u6a19
I2163
sV\u6b98
I2164
sV\u671b
I2165
sV\u659c
I2167
sV\u611f
I2168
sV\u7e21
I2169
sV\u5fa0
I2170
sV\u7825
I387
sV\u5229
I2172
sV\u6f2b
I2173
sV\u90aa
I2174
sV\u6631
I2175
sV\u67b0
I2176
sV\u84b2
I2177
sV\u6035
I2178
sV\u5eb6
I2179
sV\u7bb8
I2180
sV\u78ba
I2181
sV\u543d
I2182
sV\u95bc
I2183
sV\u52be
I2184
sV\u6fc0
I2186
sV\u8cc2
I2187
sV\u66c6
I2188
sV\u6249
I2189
sV\u9f4b
I2190
sV\u5c4d
I2191
sV\u594f
I2192
sV\u5353
I2194
sV\u5055
I2196
sV\u71d4
I2197
sV\u4ed6
I2198
sV\u6a59
I2199
sV\u6bd8
I2200
sV\u68da
I2201
sV\u85dc
I2202
sV\u7e61
I2203
sV\u5fe0
I2204
sV\u5b63
I2205
sV\u9865
I2206
sV\u79e4
I2207
sV\u7269
I2208
sV\u53e8
I2209
sV\u8dec
I2211
sV\u696f
I2212
sV\u8aee
I2213
sV\u7553
I2214
sV\u64f2
I2215
sV\u81f4
I2216
sV\u5ef6
I2217
sV\u7a79
I2218
sV\u5bf8
I2219
sV\u58fa
I2220
sV\u547d
I2221
sV\u75fc
I2222
sV\u52fe
I2223
sV\u5000
I7
sV\u7483
I2225
sV\u9785
I2226
sV\u9d89
I2227
sV\u5c08
I2228
sV\u808b
I2229
sV\u5f0a
I2230
sV\u620c
I46
sV\u50ac
I2584
sV\u8810
I2234
sV\u6c93
I2235
sV\u4e14
I2236
sV\u50b5
I4279
sV\u5599
I2237
sV\u9418
I89
sV\u5a1c
I102
sV\u9e9f
I105
sV\u6020
I2241
sV\u8322
I3240
sV\u5b9a
I3924
sV\u70ab
I2243
sV\u8f2a
I2244
sV\u93ad
I1473
sV\u722c
I2246
sV\u552e
I2247
sV\u99b1
I169
sV\u5830
I3053
sV\u5cb3
I2250
sV\u5fb5
I2251
sV\u700b
I2252
sV\u65b9
I2253
sV\u8438
I2254
sV\u673a
I2255
sV\u6d3e
I2256
sV\u91c1
I295
sV\u539f
I3994
sV\u9644
I2258
sV\u5c48
I2259
sV\u60cb
I2260
sV\u9f4a
I2261
sV\u654e
I2262
sV\u6850
I2263
sV\u6cd3
I277
sV\u8fd5
I284
sV\u7e8f
I2266
sV\u72d7
I2267
sV\u75d9
I2268
sV\u9ae5
I2269
sV\u98db
I2270
sV\u5df4
I3256
sV\u5edf
I2271
sV\u9d5e
I2210
sV\u8ae7
I2273
sV\u6c68
I2274
sV\u53ed
I362
sV\u98bc
I2278
sV\u99f1
I2279
sV\u9cf3
I2280
sV\u5ff5
I2281
sV\u5c3f
I1855
sV\u62f7
I2283
sV\u6176
I2284
sV\u6478
I2285
sV\u86c7
I1703
sV\u6deb
I1857
sV\u6eff
I2287
sV\u9080
I428
sV\u5403
I431
sV\u7684
I2291
sV\u9d09
I2292
sV\u5f8a
I458
sV\u660f
I2294
sV\u5f6c
I4037
sV\u6c13
I2296
sV\u6f15
I489
sV\u4e94
I2298
sV\u5217
I2299
sV\u7498
I2300
sV\u886e
I1860
sV\u609b
I2301
sV\u7e1f
I2302
sV\u60a0
I2303
sV\u63a2
I2304
sV\u8ca8
I2306
sV\u502b
I2307
sV\u5bc6
I2598
sV\u52ac
I565
sV\u562f
I2310
sV\u55ae
I2311
sV\u5931
I2312
sV\u5f35
I2313
sV\u9eb4
I2314
sV\u8237
I2315
sV\u61b6
I2316
sV\u6539
I2317
sV\u84b8
I2318
sV\u883b
I2319
sV\u87ba
I2320
sV\u6b3d
I2321
sV\u924b
I1901
sV\u8dbe
I2323
sV\u5141
I2324
sV\u68a8
I3357
sV\u96c4
I2325
sV\u59c6
I2326
sV\u724b
I2327
sV\u514d
I2328
sV\u7fca
I2329
sV\u634d
I2330
sV\u664f
I2331
sV\u6bd2
I2333
sV\u4f55
I2334
sV\u4ed4
I2335
sV\u6978
I4043
sV\u7559
I2336
sV\u74d8
I2337
sV\u5b5d
I2338
sV\u85fb
I4044
sV\u5e5f
I2340
sV\u5dde
I2341
sV\u9b51
I1809
sV\u8463
I2343
sV\u86e4
I2344
sV\u6d69
I2345
sV\u6ce8
I2346
sV\u706b
I2347
sV\u8fea
I2348
sV\u7c73
I2349
sV\u99d2
I2350
sV\u7f75
I2351
sV\u61f6
I2352
sV\u65e9
I3346
sV\u8b7d
I2353
sV\u9081
I2354
sV\u5100
I2355
sV\u9583
I2356
sV\u9685
I2357
sV\u5704
I849
sV\u7b87
I1267
sV\u9806
I2360
sV\u7c89
I2361
sV\u73d6
I1777
sV\u828d
I2364
sV\u678f
I2365
sV\u840e
I2366
sV\u8910
I2367
sV\u6d93
I2368
sV\u4e95
I2369
sV\u8f14
I906
sV\u7397
I2371
sV\u5016
I2372
sV\u7518
I2373
sV\u7dd6
I3956
sV\u7c1e
I2374
sV\u80a1
I2375
sV\u71b1
I3312
sV\u9db4
I2718
sV\u5148
I4014
sV\u8ca9
I2378
sV\u91ab
I2379
sV\u8e2a
I2380
sV\u742e
I2381
sV\u98b1
I2382
sV\u7009
I4053
sV\u5eb5
I1001
sV\u8036
I2385
sV\u69bb
I2386
sV\u528a
I4055
sV\u4fbf
I2387
sV\u7634
I3314
sV\u90c1
I2389
sV\u6422
I3173
sV\u96c5
I2391
sV\u9744
I2392
sV\u7bc7
I2393
sV\u9846
I2394
sV\u61cb
I2395
sV\u62cd
I2397
sV\u67cf
I2398
sV\u7f8c
I2399
sV\u4ed5
I2401
sV\u6f54
I2402
sV\u53d7
I2403
sV\u99db
I2405
sV\u7add
I2406
sV\u7fdf
I2407
sV\u80e1
I120
sV\u65e3
I2409
sV\u7f3a
I2410
sV\u8764
I2411
sV\u778b
I2412
sV\u7be6
I2413
sV\u77ef
I2414
sV\u98f1
I2415
sV\u5df3
I2416
sV\u63f7
I2417
sV\u8076
I2418
sV\u6578
I2419
sV\u69fb
I2420
sV\u667a
I2421
sV\u5761
I2422
sV\u501f
I3249
sV\u9001
I2423
sV\u79c1
I3321
sV\u6840
I2425
sV\u5c09
I2426
sV\u7d88
I1261
sV\u6c96
I1878
sV\u820d
I2429
sV\u638c
I2430
sV\u5827
I2431
sV\u6f2a
I2432
sV\u8d13
I2433
sV\u4e15
I2434
sV\u6f94
I2435
sV\u5317
I2436
sV\u9419
I2438
sV\u5598
I1300
sV\u5b9c
I2440
sV\u5f1f
I2441
sV\u6021
I2443
sV\u81a0
I2444
sV\u6523
I1741
sV\u5a9a
I4062
sV\u6625
I2446
sV\u8da8
I2447
sV\u6eaa
I2448
sV\u722d
I2449
sV\u93ac
I2450
sV\u7dde
I2451
sV\u5831
I2452
sV\u7d33
I2454
sV\u60b6
I2455
sV\u893b
I2456
sV\u6a3d
I2457
sV\u6bbc
I2458
sV\u6f3f
I1437
sV\u6cbe
I1441
sV\u9041
I2461
sV\u91c0
I2462
sV\u72c2
I2463
sV\u5da0
I2464
sV\u814b
I1699
sV\u5eca
I2466
sV\u624d
I2467
sV\u83cc
I2468
sV\u674f
I2469
sV\u6851
I2470
sV\u69d0
I2471
sV\u8ad2
I27
sV\u8e55
I2473
sV\u4fd4
I1520
sV\u7357
I1523
sV\u50d6
I2476
sV\u7459
I2477
sV\u75d8
I2478
sV\u56da
I2479
sV\u7f5f
I2480
sV\u7cde
I2481
sV\u51c9
I3879
sV\u6563
I2483
sV\u65fa
I2627
sV\u6050
I3331
sV\u6de8
I2485
sV\u516b
I2486
sV\u53ec
I2487
sV\u98fc
I424
sV\u9871
I2489
sV\u7d73
I2490
sV\u8352
I3332
sV\u9e75
I2491
sV\u6377
I1628
sV\u60f6
I2493
sV\u66fa
I2494
sV\u4f7f
I2495
sV\u7200
I1668
sV\u5404
I2497
sV\u7887
I2498
sV\u6e2d
I2500
sV\u7d0a
I2501
sV\u800c
I2502
sV\u8a10
I2503
sV\u8912
I1726
sV\u6d95
I2505
sV\u7316
I1738
sV\u6106
I2507
sV\u5a9b
I2508
sV\u751a
I2509
sV\u5949
I2866
sV\u7c9f
I2510
sV\u7504
I2630
sV\u63a1
I2512
sV\u65a5
I2513
sV\u68a7
I2514
sV\u85b0
I2515
sV\u5747
I4082
sV\u52ab
I2516
sV\u6d2a
I2517
sV\u502c
I2518
sV\u54af
I2519
sV\u7bb1
I2520
sV\u9a30
I2521
sV\u7db5
I2522
sV\u8336
I2523
sV\u6abb
I2524
sV\u89bd
I2525
sV\u683c
I2526
sV\u6cbf
I1863
sV\u8f3e
I2528
sV\u7240
I2530
sV\u76c3
I2531
sV\u55c5
I1879
sV\u7444
I1881
sV\u58c7
I2534
sV\u7b46
I2535
sV\u5fc9
I2536
sV\u60d5
I4297
sV\u81cd
I1509
sV\u8ce3
I3340
sV\u674e
I2540
sV\u6a50
I1947
sV\u6ed3
I2542
sV\u958f
I2543
sV\u7658
I2544
sV\u99dd
I2545
sV\u7cdf
I2547
sV\u63e1
I2548
sV\u6162
I2549
sV\u85e5
I1988
sV\u68e7
I2551
sV\u6b66
I2000
sV\u725b
I3668
sV\u6d6a
I2553
sV\u71ed
I2554
sV\u54ef
I2555
sV\u7130
I3448
sV\u7a70
I2556
sV\u5ef3
I2557
sV\u7812
I2558
sV\u733f
I2559
sV\u87f9
I2055
sV\u8a63
I4242
sV\u6afb
I2061
sV\u69fd
I2562
sV\u4f7e
I2076
sV\u9280
I2565
sV\u5484
I2566
sV\u8216
I2567
sV\u610d
I2568
sV\u808c
I2124
sV\u640f
I2570
sV\u6a90
I2571
sV\u7a92
I2538
sV\u9017
I2572
sV\u9396
I2573
sV\u9698
I2574
sV\u5a1b
I2575
sV\u559a
I2576
sV\u589c
I2577
sV\u5f9e
I2578
sV\u64a4
I2579
sV\u6070
I2693
sV\u8f29
I2581
sV\u4ea8
I2582
sV\u912d
I2583
sV\u70ac
I2233
sV\u742f
I2585
sV\u9b31
I2586
sV\u5e33
I2587
sV\u7d35
I2588
sV\u61c8
I2589
sV\u8dcb
I4015
sV\u86b8
I2590
sV\u8a3b
I2591
sV\u85ba
I2592
sV\u693d
I2593
sV\u8c3f
I2594
sV\u5341
I2595
sV\u72c0
I2596
sV\u54c4
I2597
sV\u7bc6
I2308
sV\u624b
I2599
sV\u7dca
I2600
sV\u80cc
I2601
sV\u7fcc
I2602
sV\u5df9
I2603
sV\u89d2
I2604
sV\u7b4f
I2606
sV\u93d6
I808
sV\u6d77
I4384
sV\u9a5b
I2608
sV\u55da
I2609
sV\u795d
I2610
sV\u98dc
I2611
sV\u5451
I2612
sV\u82d4
I3955
sV\u4f69
I2614
sV\u5409
I3492
sV\u6dea
I2615
sV\u516d
I2616
sV\u6153
I4088
sV\u746f
I2618
sV\u77ee
I2619
sV\u5b71
I2620
sV\u5e73
I2621
sV\u7664
I2622
sV\u5cf4
I2460
sV\u8077
I2624
sV\u63f6
I2625
sV\u66f8
I2626
sV\u9320
I4251
sV\u85fa
I2484
sV\u6ffe
I2628
sV\u5002
I2629
sV\u5504
I2511
sV\u50ad
I2646
sV\u5c0a
I2632
sV\u608d
I3295
sV\u660e
I2634
sV\u85af
I2635
sV\u5197
I2636
sV\u79d8
I4091
sV\u9699
I2637
sV\u5718
I2638
sV\u5b9b
I2639
sV\u591c
I2641
sV\u7e1e
I2529
sV\u64a5
I2643
sV\u69a7
I2644
sV\u70ad
I2631
sV\u5854
I2647
sV\u962e
I2648
sV\u5b30
I2649
sV\u7832
I2650
sV\u8236
I709
sV\u643a
I2652
sV\u6e3e
I2653
sV\u52c1
I2654
sV\u5340
I2655
sV\u57c3
I2656
sV\u9042
I2657
sV\u5544
I2658
sV\u5a46
I2659
sV\u5ec9
I2660
sV\u5f48
I2661
sV\u6236
I2651
sV\u614c
I2663
sV\u65cf
I2664
sV\u864e
I2665
sV\u6b50
I2666
sV\u8852
I2667
sV\u6cd5
I2668
sV\u5256
I2669
sV\u96d9
I2670
sV\u745a
I2671
sV\u5be4
I2396
sV\u5806
I2673
sV\u6062
I2674
sV\u64e5
I2675
sV\u8a66
I2676
sV\u53eb
I2678
sV\u8c6a
I2679
sV\u50ed
I2680
sV\u716c
I753
sV\u61f7
I2683
sV\u6276
I2684
sV\u66f9
I2685
sV\u8778
I2686
sV\u88fd
I2687
sV\u901f
I4200
sV\u4e7e
I2688
sV\u5201
I2689
sV\u5703
I2690
sV\u9082
I2691
sV\u6a17
I1784
sV\u7f88
I2694
sV\u9996
I3376
sV\u668e
I2696
sV\u6a11
I2697
sV\u8b90
I2698
sV\u8f13
I2699
sV\u8892
I2700
sV\u9798
I2701
sV\u7b1b
I2702
sV\u9d1f
I2703
sV\u63a0
I2704
sV\u80a2
I2705
sV\u65a4
I2706
sV\u8aa6
I2707
sV\u8fa8
I2708
sV\u732b
I307
sV\u8caa
I2710
sV\u502d
I2711
sV\u91ac
I2712
sV\u552f
I2713
sV\u76ae
I2714
sV\u7a31
I2715
sV\u5bb0
I2716
sV\u96f2
I2717
sV\u7db4
I18
sV\u6137
I2719
sV\u67b8
I2720
sV\u683d
I2721
sV\u83f4
I2722
sV\u73c0
I2723
sV\u50c2
I2724
sV\u9f77
I2121
sV\u5947
I2726
sV\u5cf6
I1932
sV\u604d
I2729
sV\u654f
I2730
sV\u714c
I2149
sV\u7a36
I2732
sV\u4f53
I2733
sV\u68d2
I2734
sV\u6c55
I905
sV\u85cf
I2736
sV\u89f8
I4108
sV\u7d2c
I4273
sV\u74da
I2738
sV\u785d
I2739
sV\u59dc
I2740
sV\u9ede
I2741
sV\u85e4
I2742
sV\u8ae6
I2743
sV\u767d
I2744
sV\u8cea
I2746
sV\u906d
I2747
sV\u756f
I2748
sV\u76ee
I2749
sV\u5bf0
I2750
sV\u7df4
I2751
sV\u6177
I2752
sV\u8679
I2753
sV\u6b7b
I2754
sV\u64fa
I2755
sV\u6d7f
I2756
sV\u8efe
I2757
sV\u5e87
I2758
sV\u5f80
I4327
sV\u9808
I2759
sV\u7b0a
I1613
sV\u878d
I2761
sV\u660c
I2762
sV\u610e
I2763
sV\u6c10
I2764
sV\u6893
I2765
sV\u84f4
I2766
sV\u7199
I2767
sV\u931a
I2768
sV\u7a9f
I2770
sV\u991e
I2771
sV\u65a1
I2772
sV\u60a3
I2773
sV\u63a5
I2774
sV\u61fa
I3152
sV\u54ab
I2775
sV\u68e0
I3411
sV\u77ad
I2777
sV\u5433
I3390
sV\u72af
I2779
sV\u712e
I2780
sV\u7db1
I2781
sV\u73ed
I2276
sV\u58b3
I2782
sV\u5bb5
I2784
sV\u8208
I1941
sV\u8cbb
I2786
sV\u7e5e
I2672
sV\u6e3c
I2788
sV\u8abf
I2789
sV\u56b4
I3392
sV\u7440
I2791
sV\u9742
I1868
sV\u7a37
I2793
sV\u7d46
I2794
sV\u59c9
I2795
sV\u84cb
I2796
sV\u664c
I2798
sV\u62cf
I2799
sV\u814e
I2800
sV\u6dd1
I2801
sV\u8c50
I2802
sV\u501c
I3569
sV\u8a54
I2803
sV\u5556
I2804
sV\u7058
I2805
sV\u535a
I2806
sV\u59fb
I2807
sV\u7adf
I2808
sV\u795e
I2809
sV\u6460
I2810
sV\u6d66
I2811
sV\u8868
I2812
sV\u6b6a
I2813
sV\u77ed
I2814
sV\u9293
I1944
sV\u716e
I2816
sV\u5df1
I2817
sV\u7f72
I2818
sV\u5bf5
I2819
sV\u7a74
I2820
sV\u8cfb
I2821
sV\u637a
I2822
sV\u8ffd
I2823
sV\u6014
I4123
sV\u7501
I2826
sV\u5480
I2827
sV\u9003
I2828
sV\u6c6a
I2776
sV\u5305
I2830
sV\u9909
I2831
sV\u7e7b
I114
sV\u670d
I2833
sV\u516c
I2681
sV\u6d11
I2835
sV\u6c90
I2836
sV\u6813
I2837
sV\u5617
I2839
sV\u61a9
I3859
sV\u9119
I2840
sV\u5098
I2841
sV\u539a
I2842
sV\u5e9c
I2844
sV\u7a1f
I2845
sV\u4ec4
I2846
sV\u8521
I2847
sV\u87a2
I2848
sV\u6247
I1207
sV\u88a8
I3217
sV\u542b
I2851
sV\u51c6
I3402
sV\u572d
I2852
sV\u91ae
I2853
sV\u8eac
I2854
sV\u534a
I3881
sV\u7fb2
I2855
sV\u9438
I2856
sV\u8139
I2857
sV\u60b8
I2404
sV\u4f3d
I2859
sV\u8d74
I2860
sV\u54c0
I2861
sV\u5043
I2862
sV\u5bc7
I2537
sV\u72c4
I2864
sV\u5e47
I2865
sV\u6e20
I4133
sV\u7949
I2640
sV\u9b4d
I2867
sV\u8276
I2869
sV\u56f9
I2871
sV\u8853
I2872
sV\u95d6
I2874
sV\u7159
I2875
sV\u99a5
I2876
sV\u5c5b
I2877
sV\u5f5d
I2878
sV\u9edc
I2879
sV\u9a5f
I2880
sV\u6063
I2882
sV\u89ba
I4216
sV\u6e67
I2883
sV\u5742
I2792
sV\u88e8
I920
sV\u6f8e
I3630
sV\u976d
I2885
sV\u526f
I2886
sV\u71ee
I2887
sV\u7d71
I2888
sV\u5cf0
I2889
sV\u7a46
I2890
sV\u5b75
I2891
sV\u85f6
I2892
sV\u8179
I2893
sV\u80f8
I2894
sV\u9cf4
I2623
sV\u8eab
I2896
sV\u86d4
I3407
sV\u92e4
I2897
sV\u9285
I2898
sV\u9304
I2899
sV\u9908
I2900
sV\u8703
I2901
sV\u932a
I2903
sV\u8993
I2904
sV\u8a95
I2905
sV\u8b14
I2906
sV\u8a50
I2541
sV\u7099
I2735
sV\u9a5a
I4028
sV\u9e9d
I2908
sV\u9b9f
I2909
sV\u5584
I2692
sV\u81a3
I2911
sV\u82a5
I2913
sV\u55ab
I90
sV\u8a2a
I2915
sV\u902e
I2917
sV\u7cb1
I2918
sV\u7d30
I2919
sV\u99b3
I2920
sV\u7532
I4142
sV\u665f
I2921
sV\u6f88
I2922
sV\u4f3c
I2923
sV\u6bbf
I2924
sV\u54c1
I2925
sV\u71c3
I2926
sV\u7642
I2927
sV\u52c5
I2928
sV\u7344
I2929
sV\u5c46
I2930
sV\u5948
I1837
sV\u65cb
I2933
sV\u7f36
I2934
sV\u874c
I2935
sV\u63cf
I2936
sV\u8cd1
I2937
sV\u77d7
I2938
sV\u70d9
I2939
sV\u5bdf
I2940
sV\u585e
I40
sV\u64e1
I2942
sV\u61e3
I2778
sV\u82e5
I2945
sV\u96f0
I4247
sV\u75bd
I2946
sV\u8155
I3422
sV\u5f13
I2947
sV\u53ef
I2948
sV\u906e
I2949
sV\u7d70
I2950
sV\u5e72
I2951
sV\u5af5
I2952
sV\u9b74
I2953
sV\u8476
I2954
sV\u60f9
I2955
sV\u8178
I2956
sV\u6dfb
I2957
sV\u4f7c
I138
sV\u887e
I2959
sV\u5401
I2960
sV\u5580
I149
sV\u76db
I3036
sV\u5384
I167
sV\u5f07
I2963
sV\u9809
I2964
sV\u75c5
I2532
sV\u8913
I2966
sV\u4e92
I2967
sV\u76e3
I2968
sV\u9019
I229
sV\u9d1b
I233
sV\u5e1d
I2971
sV\u9f9c
I2972
sV\u589e
I2973
sV\u8123
I2975
sV\u66a2
I2976
sV\u6292
I3497
sV\u752b
I2977
sV\u8aaa
I2978
sV\u77ac
I2979
sV\u932f
I2980
sV\u70ae
I2981
sV\u9c31
I308
sV\u53c9
I4155
sV\u7bb4
I324
sV\u9b5a
I3888
sV\u6d3b
I2985
sV\u4ecb
I2986
sV\u7441
I2987
sV\u5143
I2988
sV\u76c2
I2989
sV\u9245
I2990
sV\u7aca
I2992
sV\u834f
I403
sV\u80ce
I2994
sV\u6953
I2995
sV\u8ed2
I2996
sV\u8a55
I2997
sV\u6bd4
I2998
sV\u9059
I2999
sV\u91d8
I3000
sV\u5b5f
I3001
sV\u58de
I3002
sV\u8461
I3003
sV\u65e0
I3004
sV\u6163
I3005
sV\u8ce6
I3006
sV\u69e8
I3007
sV\u756b
I3008
sV\u536f
I3009
sV\u50ee
I507
sV\u5c71
I3011
sV\u9df0
I3012
sV\u5973
I3013
sV\u6777
I3014
sV\u7fa8
I3015
sV\u61f8
I3016
sV\u75fe
I3018
sV\u932b
I2709
sV\u6b7f
I3020
sV\u945b
I3958
sV\u7600
I3021
sV\u5283
I563
sV\u5782
I2829
sV\u5b89
I3024
sV\u7a08
I591
sV\u990a
I3026
sV\u840c
I3027
sV\u51ac
I3028
sV\u4f91
I3029
sV\u4e10
I748
sV\u8a93
I3031
sV\u8a02
I3032
sV\u852f
I3033
sV\u5716
I3034
sV\u711a
I3035
sV\u66db
I2931
sV\u589f
I3037
sV\u7b1e
I3038
sV\u6620
I3039
sV\u795a
I4168
sV\u8ca7
I3041
sV\u8f26
I3042
sV\u9006
I3429
sV\u95ad
I3044
sV\u70af
I712
sV\u932e
I3046
sV\u5834
I734
sV\u8b3e
I766
sV\u5fe1
I2858
sV\u52c3
I3051
sV\u860a
I3052
sV\u9bc9
I796
sV\u8a8d
I3432
sV\u86cb
I3056
sV\u994a
I3057
sV\u85cd
I3058
sV\u4fd1
I817
sV\u6ad3
I3060
sV\u9756
I3062
sV\u9edb
I847
sV\u5ddd
I3066
sV\u58df
I806
sV\u9091
I3068
sV\u6562
I3069
sV\u81e5
I3070
sV\u6064
I3071
sV\u9716
I3072
sV\u896a
I2991
sV\u770b
I3074
sV\u936e
I3075
sV\u5ff1
I3076
sV\u7e70
I3077
sV\u9d72
I932
sV\u9874
I3079
sV\u8776
I3080
sV\u83f9
I3081
sV\u8efb
I703
sV\u817a
I3083
sV\u7701
I3084
sV\u5203
I3085
sV\u916a
I3086
sV\u56db
I4167
sV\u9084
I3087
sV\u7c07
I991
sV\u5b09
I3089
sV\u7a88
I3090
sV\u860b
I3091
sV\u798a
I1004
sV\u600f
I3093
sV\u838e
I3094
sV\u6f11
I1024
sV\u6e90
I3096
sV\u6a13
I812
sV\u6894
I1043
sV\u5319
I3099
sV\u9298
I3100
sV\u5e1b
I1057
sV\u7b6e
I4180
sV\u9149
I3102
sV\u60a4
I3103
sV\u8fa6
I3104
sV\u8aa8
I3106
sV\u89aa
I3107
sV\u54ac
I3108
sV\u5f31
I3109
sV\u9eb0
I3110
sV\u7db2
I3111
sV\u5316
I2506
sV\u67b6
I3112
sV\u8339
I1840
sV\u82b8
I3114
sV\u4e3b
I3115
sV\u61ba
I1159
sV\u6d3d
I3117
sV\u6cbc
I989
sV\u96c0
I3119
sV\u75c2
I1183
sV\u5145
I3121
sV\u9c47
I3122
sV\u7b49
I3123
sV\u7ac8
I3124
sV\u664b
I3125
sV\u59ca
I3126
sV\u654d
I3127
sV\u83ce
I1216
sV\u6f51
I1219
sV\u6955
I3131
sV\u88d4
I3132
sV\u7457
I3133
sV\u52d8
I3134
sV\u874e
I3135
sV\u9d5d
I3136
sV\u7cdc
I3137
sV\u5bde
I3138
sV\u66e0
I3139
sV\u60e0
I2342
sV\u80e4
I3142
sV\u8fe6
I3143
sV\u69ea
I3144
sV\u947c
I3145
sV\u5f71
I3146
sV\u9df2
I1331
sV\u98f4
I3148
sV\u8477
I3149
sV\u67f6
I3150
sV\u97ac
I3151
sV\u5175
I4249
sV\u81fa
I1356
sV\u8cfc
I3153
sV\u887f
I3154
sV\u7681
I3155
sV\u4f01
I2561
sV\u7085
I1052
sV\u5104
I3158
sV\u5d87
I3159
sV\u5e06
I3160
sV\u678b
I3162
sV\u580a
I3163
sV\u818f
I3164
sV\u620e
I3165
sV\u4e91
I3166
sV\u4f10
I3167
sV\u8b93
I3168
sV\u4faf
I3170
sV\u9318
I3171
sV\u501a
I1468
sV\u93de
I4240
sV\u64da
I540
sV\u80a5
I3174
sV\u4e26
I1506
sV\u8b28
I3176
sV\u682a
I3177
sV\u81e3
I2943
sV\u91af
I3178
sV\u522e
I3179
sV\u8309
I3180
sV\u5bb3
I3181
sV\u9c32
I3182
sV\u85b7
I1559
sV\u6636
I3184
sV\u82b9
I1564
sV\u8338
I3186
sV\u8734
I3187
sV\u96c1
I3188
sV\u5740
I1600
sV\u93c3
I1603
sV\u5442
I1607
sV\u50c5
I3192
sV\u5144
I3193
sV\u7dc7
I3194
sV\u5ac9
I1619
sV\u5d0d
I3196
sV\u87cb
I3197
sV\u9be4
I2870
sV\u84cd
I1631
sV\u81cf
I3200
sV\u6ed1
I3201
sV\u4f50
I3202
sV\u68d5
I1657
sV\u6954
I3204
sV\u7656
I3205
sV\u52d9
I3206
sV\u505a
I3207
sV\u79df
I3208
sV\u6760
I3209
sV\u856a
I4188
sV\u80e5
I3210
sV\u82bd
I3211
sV\u54ed
I3212
sV\u5f70
I1756
sV\u5974
I3214
sV\u6676
I3215
sV\u5ebe
I3218
sV\u7b51
I3219
sV\u69ff
I3220
sV\u6094
I4197
sV\u58c1
I3458
sV\u7005
I1814
sV\u7184
I3223
sV\u7d07
I1821
sV\u8c41
I3225
sV\u5b88
I3226
sV\u670b
I3227
sV\u840d
I2482
sV\u658c
I3229
sV\u610f
I3230
sV\u828e
I3231
sV\u4e11
I3232
sV\u6c92
I3234
sV\u8815
I3235
sV\u6994
I3236
sV\u5398
I3237
sV\u5f1b
I3238
sV\u7d9c
I3239
sV\u8adb
I2824
sV\u61a4
I3242
sV\u8b39
I4214
sV\u4ea6
I3243
sV\u985a
I4303
sV\u55ac
I3244
sV\u7e31
I3245
sV\u7b33
I3246
sV\u7cb2
I3247
sV\u5835
I3248
sV\u99b4
I1973
sV\u6537
I3250
sV\u8239
I3251
sV\u8f3b
I3252
sV\u80ba
I3253
sV\u6dbc
I2003
sV\u693f
I3255
sV\u8abe
I2008
sV\u7262
I3257
sV\u5343
I3258
sV\u51c4
I684
sV\u5a49
I3260
sV\u7bc8
I3261
sV\u78ca
I3262
sV\u65cc
I2053
sV\u728d
I3264
sV\u985e
I2941
sV\u76d6
I3266
sV\u7259
I3267
sV\u5f5b
I3268
sV\u50da
I3269
sV\u8fa3
I3706
sV\u64e2
I3270
sV\u6065
I3271
sV\u8d67
I3272
sV\u8a69
I3273
sV\u5e71
I3274
sV\u7ff0
I3275
sV\u7252
I1276
sV\u5875
I3277
sV\u6577
I3278
sV\u6279
I3279
sV\u6042
I3280
sV\u60fa
I3281
sV\u6c7d
I3282
sV\u5e2b
I4206
sV\u897f
I3284
sV\u8afe
I3285
sV\u7981
I3286
sV\u5800
I3287
sV\u5f85
I2238
sV\u5287
I3289
sV\u5106
I3290
sV\u5589
I2249
sV\u5408
I3292
sV\u888b
I3293
sV\u8a0c
I3294
sV\u6191
I3296
sV\u8010
I3297
sV\u6493
I3298
sV\u6795
I3299
sV\u6614
I3300
sV\u5916
I3301
sV\u9bae
I4210
sV\u89a1
I3303
sV\u7322
I3304
sV\u82f4
I3305
sV\u6e24
I3306
sV\u7b54
I3307
sV\u85a9
I3308
sV\u672a
I3309
sV\u7bad
I3310
sV\u91b1
I2376
sV\u54b3
I3313
sV\u75b2
I4211
sV\u53ca
I3949
sV\u5634
I2388
sV\u8936
I3315
sV\u6c38
I3316
sV\u4f3a
I3317
sV\u83bd
I3318
sV\u86bf
I3319
sV\u80b4
I2453
sV\u99c1
I2424
sV\u9b42
I3322
sV\u7fc5
I2439
sV\u5e44
I2442
sV\u52c7
I3325
sV\u5146
I3326
sV\u5448
I3327
sV\u68cb
I3328
sV\u574a
I3329
sV\u6bcd
I3330
sV\u65e5
I2550
sV\u7a62
I1664
sV\u8654
I3333
sV\u7956
I3334
sV\u93dd
I3336
sV\u763b
I3337
sV\u76df
I3338
sV\u555e
I3339
sV\u6ce3
I2539
sV\u6b62
I3341
sV\u8fe5
I3342
sV\u8e64
I3343
sV\u82e7
I3344
sV\u8166
I3345
sV\u85e9
I2427
sV\u58eb
I3347
sV\u876a
I3348
sV\u9eef
I3349
sV\u84bc
I4218
sV\u51f1
I3350
sV\u7070
I3351
sV\u7372
I3352
sV\u57f5
I3353
sV\u5674
I3354
sV\u8af7
I3355
sV\u6df9
I3356
sV\u7b95
I568
sV\u60fb
I3358
sV\u83fd
I3359
sV\u9598
I3360
sV\u66ff
I3361
sV\u7901
I3362
sV\u5b82
I3363
sV\u5e84
I3364
sV\u5207
I3365
sV\u4ec0
I3366
sV\u61fc
I3837
sV\u8a8c
I3368
sV\u8e0f
I3369
sV\u6d8e
I3370
sV\u6392
I3372
sV\u6715
I3373
sV\u4fef
I3374
sV\u7a17
I3375
sV\u5996
I2695
sV\u7d19
I3377
sV\u7c98
I3378
sV\u701b
I3379
sV\u731d
I3381
sV\u929c
I3382
sV\u559e
I3383
sV\u80f1
I3384
sV\u6c23
I3385
sV\u4ea4
I3386
sV\u6170
I1291
sV\u7d5e
I2272
sV\u7aac
I3388
sV\u8349
I3389
sV\u7433
I516
sV\u73b2
I2783
sV\u96b4
I2790
sV\u6cb8
I3265
sV\u633d
I3394
sV\u62bc
I3395
sV\u863f
I3396
sV\u9774
I3486
sV\u7941
I3398
sV\u7c43
I3399
sV\u5bc2
I3400
sV\u7247
I2849
sV\u7420
I576
sV\u54c8
I3403
sV\u4e4f
I3404
sV\u8151
I3405
sV\u8755
I3406
sV\u784f
I2052
sV\u9a57
I3408
sV\u965f
I3409
sV\u5147
I3804
sV\u6961
I3410
sV\u5751
I2060
sV\u4ee4
I3412
sV\u61e6
I3413
sV\u8569
I3414
sV\u786b
I990
sV\u6253
I4231
sV\u5dee
I3416
sV\u5171
I3417
sV\u5473
I3418
sV\u53f2
I3419
sV\u76f4
I3420
sV\u6d79
I3421
sV\u51cc
I3129
sV\u7881
I3424
sV\u7d83
I3425
sV\u5b2a
I3426
sV\u5f04
I3427
sV\u7387
I3428
sV\u7006
I3043
sV\u5288
I4190
sV\u97ad
I3430
sV\u898b
I3431
sV\u6a8d
I3055
sV\u6b0c
I3433
sV\u8212
I2086
sV\u6714
I3435
sV\u5b97
I3436
sV\u7d18
I3437
sV\u4ea5
I3441
sV\u9e1a
I3438
sV\u731c
I3439
sV\u8da3
I3440
sV\u6ea5
I2499
sV\u63a7
I3442
sV\u8026
I3443
sV\u79ab
I3445
sV\u7b2c
I3446
sV\u90b1
I3447
sV\u9130
I2019
sV\u75b3
I3449
sV\u7232
I3450
sV\u6bb7
I3451
sV\u8836
I3452
sV\u6cb9
I3453
sV\u6d38
I3454
sV\u6e3a
I3455
sV\u7f9e
I3105
sV\u643e
I3457
sV\u78c1
I3221
sV\u7940
I3459
sV\u9ee0
I3460
sV\u54c9
I3461
sV\u69cb
I3462
sV\u6536
I2785
sV\u8acd
I3463
sV\u6b4c
I3464
sV\u8881
I3465
sV\u6c4e
I3466
sV\u60d1
I3467
sV\u8150
I3468
sV\u4f0f
I3494
sV\u9bd7
I3470
sV\u5cd9
I3471
sV\u52dd
I3472
sV\u535c
I3311
sV\u57df
I3474
sV\u745e
I3475
sV\u88e1
I3476
sV\u9011
I3371
sV\u8de3
I3478
sV\u8a62
I620
sV\u4ee5
I3480
sV\u6f64
I3481
sV\u5fbd
I3482
sV\u7aed
I3483
sV\u7b6c
I3484
sV\u76f2
I4106
sV\u5292
I2193
sV\u5d14
I2564
sV\u6876
I3487
sV\u6d78
I3488
sV\u593e
I3489
sV\u67ff
I3490
sV\u7a84
I3910
sV\u7409
I112
sV\u968a
I3493
sV\u6f0f
I3469
sV\u6190
I3495
sV\u8513
I3496
sV\u8292
I251
sV\u986f
I4245
sV\u5c19
I3499
sV\u5e9a
I3500
sV\u521d
I3501
sV\u811b
I3502
sV\u571f
I3503
sV\u6821
I3504
sV\u5809
I3505
sV\u6aa2
I3506
sV\u6fa4
I3507
sV\u56f0
I3508
sV\u85a8
I3509
sV\u592b
I3510
sV\u86aa
I3511
sV\u7cae
I3512
sV\u9031
I3513
sV\u79c9
I3514
sV\u7533
I3515
sV\u6b37
I3516
sV\u68b6
I3517
sV\u6db8
I492
sV\u4eba
I3519
sV\u79c0
I3520
sV\u7d43
I3521
sV\u5ac2
I3522
sV\u5e45
I3523
sV\u5347
I3524
sV\u76ca
I3525
sV\u6bcc
I3526
sV\u4f4f
I3527
sV\u60e1
I2408
sV\u6553
I3528
sV\u62d2
I3529
sV\u8655
I3530
sV\u67d4
I3531
sV\u5b57
I3532
sV\u7dd8
I3533
sV\u77dc
I4094
sV\u514e
I2275
sV\u725d
I1463
sV\u9e1e
I2642
sV\u8861
I3537
sV\u6d63
I3538
sV\u6fe4
I3539
sV\u6367
I3540
sV\u6c50
I3541
sV\u6469
I3542
sV\u65e8
I3543
sV\u5bec
I3544
sV\u84fc
I3545
sV\u51f0
I3547
sV\u9675
I3548
sV\u57f4
I3549
sV\u8b77
I1066
sV\u8c79
I3551
sV\u6df8
I3552
sV\u67ec
I3553
sV\u792b
I3554
sV\u677f
I3555
sV\u64fe
I3556
sV\u7a00
I3557
sV\u5c04
I3558
sV\u665b
I3559
sV\u4f0e
I3560
sV\u6210
I3561
sV\u7b8f
I3562
sV\u8f2f
I3563
sV\u7897
I3564
sV\u5b16
I3565
sV\u5f99
I3566
sV\u529b
I3567
sV\u7d1a
I3568
sS'<SAME>'
p6
I1
sV\u749f
I3570
sV\u971e
I3216
sV\u7031
I3572
sV\u6587
I2084
sV\u6628
I3575
sV\u652a
I3576
sV\u99ad
I3577
sV\u782c
I3578
sV\u5230
I3579
sV\u9132
I3580
sV\u75b5
I3581
sV\u7434
I3582
sV\u4e38
I3583
sV\u82bb
I3584
sV\u81bd
I3585
sV\u803c
I3586
sV\u84bf
I3587
sV\u7bc1
I3588
sV\u7a40
I3589
sV\u9ec3
I3590
sV\u8acb
I3591
sV\u69cd
I3592
sV\u9589
I3291
sV\u4f4e
I3594
sV\u9f08
I3573
sV\u7db8
I1333
sV\u5fd9
I3598
sV\u73e5
I3599
sV\u51dd
I3600
sV\u505c
I3601
sV\u975e
I3603
sV\u8a60
I3604
sV\u4ee3
I3605
sV\u6eba
I3606
sV\u67e9
I3607
sV\u6668
I4185
sV\u8d66
I3609
sV\u99ed
I222
sV\u786c
I3611
sV\u7cef
I2185
sV\u7f6e
I3613
sV\u53f1
I3614
sV\u633a
I2787
sV\u9474
I3616
sV\u8ff9
I3617
sV\u8cb8
I3393
sV\u82fb
I3618
sV\u677e
I3619
sV\u5e03
I3620
sV\u5982
I3621
sV\u7d05
I3622
sV\u6cbb
I3473
sV\u7386
I3623
sV\u7709
I3624
sV\u97ed
I3625
sV\u584a
I3198
sV\u9766
I3017
sV\u690d
I3628
sV\u6c0f
I3629
sV\u766c
I2815
sV\u6311
I3631
sV\u6613
I3632
sV\u8ac2
I3633
sV\u9817
I3634
sV\u7e45
I3635
sV\u721b
I3636
sV\u516e
I3637
sV\u541f
I3639
sV\u779e
I3640
sV\u6b21
I3641
sV\u8aa0
I3642
sV\u6e23
I3643
sV\u6d25
I3644
sV\u6027
I3645
sV\u58fd
I2884
sV\u85aa
I3646
sV\u592d
I3647
sV\u5fae
I3648
sV\u8dba
I1772
sV\u60bc
I3650
sV\u67be
I3651
sV\u9b41
I3652
sV\u807f
I3653
sV\u7e43
I3654
sV\u56ca
I3655
sV\u9047
I95
sV\u5247
I3401
sV\u76c8
I3657
sV\u6a4b
I3658
sV\u95ca
I3659
sV\u7bcc
I52
sV\u8351
I3661
sV\u62d0
I3662
sV\u64d4
I3663
sV\u5857
I3664
sV\u9078
I629
sV\u5f59
I3666
sV\u9ed8
I3667
sV\u925b
I165
sV\u7dda
I3669
sV\u7cfb
I3670
sV\u745f
I3671
sV\u6b61
I3672
sV\u8cbc
I3118
sV\u8ce4
I3673
sV\u91d0
I3674
sV\u7a6b
I3675
sV\u59cb
I3254
sV\u596d
I1733
sV\u78ec
I227
sV\u5c6f
I3679
sV\u5e7c
I3680
sV\u5371
I3681
sV\u9673
I3682
sV\u92d2
I3683
sV\u7575
I3684
sV\u8170
I3387
sV\u4ef6
I4385
sV\u6ef8
I267
sV\u6dfa
I3687
sV\u617d
I3688
sV\u7b9c
I3689
sV\u87fe
I3690
sV\u7a81
I3691
sV\u9802
I303
sV\u7d04
I3693
sV\u9187
I3694
sV\u7206
I315
sV\u5708
I3696
sV\u888d
I3697
sV\u95b1
I3866
sV\u832b
I3019
sV\u6291
I3698
sV\u8012
I328
sV\u50de
I4095
sV\u5f18
I3700
sV\u939b
I3701
sV\u711c
I3702
sV\u761e
I3703
sV\u8aa1
I3704
sV\u6b20
I395
sV\u6fa3
I399
sV\u6822
I2944
sV\u6839
I4075
sV\u56ae
I3708
sV\u61a7
I3709
sV\u6cca
I3120
sV\u525d
I3535
sV\u642a
I3712
sV\u792c
I3713
sV\u9daf
I3714
sV\u7e2e
I3715
sV\u77b3
I3716
sV\u9032
I3717
sV\u74b5
I3718
sV\u8a36
I3719
sV\u8f38
I468
sV\u60bd
I3721
sV\u613c
I3722
sV\u5ac1
I3724
sV\u5b40
I3725
sV\u5fc3
I3726
sV\u6b8a
I3727
sV\u7d44
I3728
sV\u91c7
I3729
sV\u7246
I3730
sV\u96c9
I3731
sV\u570d
I642
sV\u6bcb
I3733
sV\u544a
I3734
sV\u68cd
I3735
sV\u8dcf
I3736
sV\u62b9
I3185
sV\u82d1
I3738
sV\u6350
I3739
sV\u67d3
I3740
sV\u6052
I3741
sV\u53db
I3742
sV\u618e
I3743
sV\u715c
I586
sV\u55df
I3745
sV\u965e
I3746
sV\u8ae1
I3747
sV\u8862
I3748
sV\u6ce5
I3749
sV\u8d64
I3750
sV\u81e7
I3751
sV\u8266
I3752
sV\u8768
I2843
sV\u5beb
I3754
sV\u98ed
I3755
sV\u596c
I3756
sV\u7def
I3757
sV\u86d9
I3758
sV\u5370
I3759
sV\u77f3
I661
sV\u9072
I3761
sV\u9805
I4329
sV\u8c7a
I2797
sV\u80fd
I3763
sV\u65ff
I698
sV\u5a01
I3765
sV\u5609
I3767
sV\u5788
I3768
sV\u900d
I3769
sV\u880d
I3770
sV\u5149
I3947
sV\u4e8e
I3771
sV\u6211
I3772
sV\u7119
I3773
sV\u4f6f
I2390
sV\u7098
I3775
sV\u5e19
I3776
sV\u7f98
I783
sV\u731b
I3778
sV\u701d
I701
sV\u919c
I3780
sV\u751f
I3781
sV\u569e
I3782
sV\u6a21
I3783
sV\u6f23
I3784
sV\u68a2
I3785
sV\u6127
I3786
sV\u982d
I3788
sV\u59ac
I840
sV\u7d2f
I3790
sV\u93b0
I3791
sV\u50b2
I3792
sV\u7435
I1659
sV\u6a1f
I3794
sV\u4e39
I3795
sV\u803d
I3797
sV\u853f
I901
sV\u5a41
I3800
sV\u7bc0
I3801
sV\u5c45
I3802
sV\u6b77
I3550
sV\u7147
I2096
sV\u57c8
I3805
sV\u74ca
I3806
sV\u884d
I3807
sV\u69cc
I944
sV\u6ece
I3809
sV\u63d0
I3810
sV\u6753
I3811
sV\u57a2
I3812
sV\u939a
I3813
sV\u9957
I976
sV\u62bd
I3456
sV\u5fd8
I3816
sV\u935b
I3817
sV\u9a4e
I3818
sV\u905d
I993
sV\u51dc
I2868
sV\u56de
I1002
sV\u6a61
I3822
sV\u6167
I3823
sV\u82e6
I3824
sV\u6669
I3825
sV\u527d
I3826
sV\u5b6b
I3827
sV\u59ec
I3828
sV\u53f0
I3829
sV\u5475
I3830
sV\u75f4
I3831
sV\u6977
I3832
sV\u8af6
I1082
sV\u4ff8
I1087
sV\u837b
I3835
sV\u807d
I3836
sV\u81fc
I1102
sV\u86fe
I1109
sV\u5883
I3839
sV\u5b85
I3840
sV\u5687
I1126
sV\u5506
I3842
sV\u9189
I3843
sV\u6e56
I3844
sV\u4f8d
I3845
sV\u6ea2
I4063
sV\u690e
I3846
sV\u8591
I1340
sV\u6410
I3848
sV\u6ceb
I3849
sV\u9e97
I1177
sV\u5d16
I3851
sV\u9999
I1181
sV\u6d85
I3608
sV\u9b1a
I3854
sV\u62d7
I3855
sV\u961c
I3856
sV\u529f
I3857
sV\u6212
I3434
sV\u6f22
I3858
sV\u758a
I4287
sV\u514c
I2731
sV\u81a9
I1370
sV\u6028
I3860
sV\u5cab
I3861
sV\u632a
I3862
sV\u5fad
I3863
sV\u7aaf
I3864
sV\u592e
I3865
sV\u75b1
I1735
sV\u50b3
I3867
sV\u9732
I3868
sV\u9234
I3869
sV\u7802
I3870
sV\u6838
I3871
sV\u64bb
I1280
sV\u6b3a
I3873
sV\u613e
I1295
sV\u5c40
I3875
sV\u81e8
I4100
sV\u5bc5
I3876
sV\u96c7
I3877
sV\u5546
I3878
sV\u91c9
I1330
sV\u5048
I3880
sV\u934a
I1337
sV\u6139
I3882
sV\u5f4a
I3883
sV\u70b8
I3884
sV\u59d9
I1137
sV\u5858
I2305
sV\u5b5a
I3023
sV\u5c3b
I3380
sV\u52df
I3890
sV\u715e
I3891
sV\u8de1
I1406
sV\u6c60
I3893
sV\u68e3
I3894
sV\u8f62
I3895
sV\u7210
I1379
sV\u6068
I3897
sV\u7aef
I3898
sV\u596e
I3899
sV\u9112
I3900
sV\u4ef7
I3901
sV\u5368
I3902
sV\u522a
I3903
sV\u79be
I3904
sV\u6feb
I3905
sV\u62ff
I3906
sV\u6414
I3649
sV\u9803
I3908
sV\u5f82
I3909
sV\u6897
I1382
sV\u5586
I1546
sV\u5109
I1549
sV\u9088
I3913
sV\u8b16
I3914
sV\u4f0d
I3915
sV\u6043
I671
sV\u9d6c
I4316
sV\u8511
I3918
sV\u6490
I1579
sV\u5f6a
I3920
sV\u6294
I3921
sV\u4e18
I1384
sV\u5919
I1605
sV\u7345
I2863
sV\u741b
I2902
sV\u7b9a
I1614
sV\u769c
I466
sV\u5e61
I4285
sV\u8ca0
I3926
sV\u8aa4
I3927
sV\u6627
I3928
sV\u85a6
I3929
sV\u8129
I3930
sV\u742b
I3931
sV\u7c2b
I3932
sV\u63aa
I3933
sV\u6eb1
I3799
sV\u99ae
I1677
sV\u5531
I1681
sV\u9949
I2769
sV\u7b97
I3939
sV\u771e
I3571
sV\u673d
I3941
sV\u623f
I3942
sV\u81be
I1729
sV\u7b45
I1748
sV\u7ac4
I3945
sV\u7a20
I3946
sV\u7149
I1760
sV\u70c8
I3948
sV\u73ca
I665
sV\u8f4d
I1774
sV\u8ecc
I1778
sV\u6551
I3952
sV\u87d2
I3953
sV\u6355
I3954
sV\u62d4
I1801
sV\u5dd6
I2240
sV\u58d8
I3957
sV\u745b
I903
sV\u76dc
I1827
sV\u725f
I3960
sV\u51de
I3961
sV\u6ce0
I787
sV\u8863
I3963
sV\u6b65
I3964
sV\u8667
I3965
sV\u65e6
I3966
sV\u9b54
I4390
sV\u5f6d
I3968
sV\u5eec
I187
sV\u59ee
I3970
sV\u7375
I1450
sV\u6979
I3972
sV\u88f8
I3973
sV\u620d
I3974
sV\u66fc
I3976
sV\u627f
I3977
sV\u707c
I4246
sV\u7d00
I3978
sV\u5983
I3979
sV\u5e02
I3980
sV\u7406
I3981
sV\u79ad
I3982
sV\u520a
I3983
sV\u8e8d
I3984
sV\u6491
I1994
sV\u6c82
I3986
sV\u6295
I3987
sV\u5f97
I3988
sV\u5c16
I3989
sV\u8805
I2153
sV\u7a1a
I3991
sV\u769d
I3992
sV\u571c
I2037
sV\u739f
I2039
sV\u901e
I3995
sV\u8ca1
I3996
sV\u8aa5
I3997
sV\u7230
I3998
sV\u80a9
I3999
sV\u4f5d
I4000
sV\u822a
I2081
sV\u5ead
I4002
sV\u7530
I4003
sV\u5632
I2109
sV\u7334
I4005
sV\u8938
I4006
sV\u6a3a
I2134
sV\u708a
I4008
sV\u7ac5
I4009
sV\u9b44
I4010
sV\u74e0
I1602
sV\u50c9
I4013
sV\u9c0d
I2745
sV\u6dcb
I3638
sV\u524a
I4016
sV\u8ecd
I4017
sV\u7063
I4018
sV\u6bcf
I4019
sV\u684e
I4020
sV\u8606
I4021
sV\u7fb9
I4022
sV\u5fd7
I4023
sV\u6e38
I4024
sV\u58d9
I4025
sV\u5958
I4026
sV\u75db
I4027
sV\u5a5a
I2242
sV\u975c
I4029
sV\u52e4
I691
sV\u6ce1
I4031
sV\u89e3
I4032
sV\u6b64
I4033
sV\u5272
I3391
sV\u6168
I4034
sV\u5deb
I4035
sV\u7de6
I4036
sV\u9f6c
I2295
sV\u7570
I4038
sV\u52f5
I4039
sV\u5374
I4040
sV\u8ff7
I4041
sV\u6c76
I1787
sV\u7015
I2159
sV\u65fb
I2339
sV\u807e
I4046
sV\u5c01
I4047
sV\u7e82
I4048
sV\u7a05
I4049
sV\u7d17
I4338
sV\u9707
I4051
sV\u5486
I4052
sV\u5009
I2383
sV\u6d0b
I4054
sV\u7766
I3073
sV\u4e0d
I4056
sV\u4f38
I3720
sV\u7e37
I4057
sV\u9a19
I4340
sV\u8942
I4059
sV\u6215
I4060
sV\u5f17
I4061
sV\u7708
I3723
sV\u4ea2
I2472
sV\u8a25
I4064
sV\u6ba4
I4065
sV\u67d2
I4066
sV\u81a8
I4067
sV\u7d2b
I4068
sV\u5e2d
I4069
sV\u9b2f
I4070
sV\u58ae
I4071
sV\u5180
I4072
sV\u7235
I4073
sV\u8cb6
I4074
sV\u8839
I494
sV\u7b75
I4076
sV\u653b
I4077
sV\u7587
I4255
sV\u5acb
I4078
sV\u5e5e
I4079
sV\u9a45
I4080
sV\u5bc4
I2362
sV\u7747
I2645
sV\u54c6
I4083
sV\u5049
I4084
sV\u71c8
I4085
sV\u6e4d
I4086
sV\u8b4f
I4087
sV\u884c
I3593
sV\u8153
I2617
sV\u5f57
I4089
sV\u7cd6
I4090
sV\u9825
I2171
sV\u8f4e
I4092
sV\u965d
I4093
sV\u97dc
I1263
sV\u90de
I3061
sV\u8c61
I4096
sV\u6963
I4097
sV\u64e6
I4098
sV\u6069
I4099
sV\u6f7d
I2895
sV\u7e6d
I2873
sV\u9b6f
I4102
sV\u98ee
I4103
sV\u5471
I4104
sV\u75f0
I4105
sV\u9152
I1534
sV\u5275
I4107
sV\u95d5
I2377
sV\u8afa
I4109
sV\u5108
I4110
sV\u6968
I4111
sV\u5f81
I4112
sV\u7d02
I4113
sV\u7487
I4114
sV\u7389
I4116
sV\u5208
I4117
sV\u4e8b
I4118
sV\u7b56
I3597
sV\u6d8d
I4119
sV\u688f
I4120
sV\u8b0e
I4121
sV\u8602
I4122
sV\u8014
I2825
sV\u7c97
I4124
sV\u5e58
I4011
sV\u5b99
I4126
sV\u5a18
I4127
sV\u969b
I4128
sV\u591a
I4129
sV\u759d
I2850
sV\u82db
I4131
sV\u4fce
I4132
sV\u57a0
I3887
sV\u8aa3
I4134
sV\u6726
I4135
sV\u63a9
I4136
sV\u91dd
I4137
sV\u5eab
I4138
sV\u7dad
I4139
sV\u905c
I4140
sV\u92b3
I4141
sV\u64b2
I2286
sV\u91b5
I4143
sV\u8cb7
I4144
sV\u4f36
I4145
sV\u6dc6
I4146
sV\u6a38
I4147
sV\u66bb
I4148
sV\u65bd
I4149
sV\u758b
I4150
sV\u633e
I4151
sV\u7fc1
I4152
sV\u5e40
I4153
sV\u8a0a
I1864
sV\u73c9
I2983
sV\u7248
I4156
sV\u8ecb
I1481
sV\u914a
I4158
sV\u8c4c
I4159
sV\u88cf
I4160
sV\u6b4e
I4161
sV\u67d1
I4162
sV\u8650
I4163
sV\u62d3
I4164
sV\u6962
I4165
sV\u76c6
I4362
sV\u5bb8
I4166
sV\u96db
I2290
sV\u595a
I3040
sV\u745c
I4169
sV\u70df
I4170
sV\u535e
I3048
sV\u4fe1
I4172
sV\u8e60
I4173
sV\u58ba
I4174
sV\u64e7
I4175
sV\u8766
I4176
sV\u83e9
I4177
sV\u7c6c
I2195
sV\u78ef
I98
sV\u75bc
I3787
sV\u9670
I4181
sV\u52f3
I4182
sV\u91f5
I4183
sV\u5074
I4184
sV\u65fd
I4186
sV\u5f01
I4187
sV\u5d82
I3169
sV\u79ed
I3610
sV\u4e0b
I4191
sV\u718a
I3191
sV\u8d0d
I4193
sV\u8c8c
I4194
sV\u5099
I2907
sV\u6115
I4196
sV\u5cef
I3612
sV\u7b19
I4198
sV\u5d19
I4199
sV\u701f
I2563
sV\u8a23
I3263
sV\u8925
I4204
sV\u93e2
I4205
sV\u7e2b
I3283
sV\u96c6
I4207
sV\u5cac
I4208
sV\u582f
I4209
sV\u5bae
I3302
sV\u79ae
I3935
sV\u9172
I3615
sV\u6c37
I3324
sV\u4fb6
I4213
sV\u6b39
I1679
sV\u663b
I4215
sV\u581e
I2910
sV\u853d
I4217
sV\u7023
I3546
sV\u803f
I4219
sV\u70b3
I4220
sV\u9945
I4221
sV\u98c4
I4222
sV\u9403
I4223
sV\u97c6
I4224
sV\u5349
I4225
sV\u7c4d
I4226
sV\u4e4b
I4227
sV\u7662
I4228
sV\u6ccc
I4229
sV\u6751
I4230
sV\u7d42
I4154
sV\u65d2
I246
sV\u871c
I1817
sV\u9c57
I4234
sV\u9ad8
I4235
sV\u965b
I4236
sV\u59da
I4237
sV\u755d
I4238
sV\u74dc
I4239
sV\u73de
I1444
sV\u8f61
I4241
sV\u7c12
I1436
sV\u7e6b
I4243
sV\u81ea
I4244
sV\u786f
I3498
sV\u5bee
I4045
sV\u58a9
I2881
sV\u75f2
I4248
sV\u9175
I3518
sV\u8af8
I4250
sV\u75ab
I2914
sV\u9177
I3259
sV\u8968
I4253
sV\u5885
I4254
sV\u5587
I3574
sV\u5606
I4256
sV\u5289
I4257
sV\u5308
I4258
sV\u4f8b
I4259
sV\u6d0c
I4260
sV\u898f
I4261
sV\u8a0e
I4262
sV\u6691
I4263
sV\u5e16
I4264
sV\u818a
I2017
sV\u719f
I4265
sV\u921e
I4266
sV\u4ea1
I4267
sV\u6f20
I4268
sV\u4e4e
I3737
sV\u65a7
I4269
sV\u82a9
I4270
sV\u8328
I4271
sV\u901d
I3779
sV\u602a
I4272
sV\u79b3
I3367
sV\u7a2e
I4274
sV\u96b1
I4275
sV\u9730
I3710
sV\u73b3
I4277
sV\u6e32
I4278
sV\u90b5
I1383
sV\u8ab9
I4280
sV\u6a0b
I3626
sV\u81bf
I4282
sV\u623e
I4283
sV\u5ec1
I4284
sV\u5f40
I3766
sV\u5bc3
I4286
sV\u558a
I3627
sV\u58c5
I4288
sV\u75c7
I4289
sV\u7fe0
I4290
sV\u52c9
I4291
sV\u5348
I4292
sV\u904a
I4293
sV\u8c37
I4212
sV\u6750
I4294
sV\u83d3
I4295
sV\u8ce2
I4375
sV\u971c
I3993
sV\u8154
I4298
sV\u9dd7
I4299
sV\u7ad9
I4300
sV\u5b58
I4301
sV\u77db
I4302
sV\u585a
I416
sV\u9055
I4304
sV\u7f85
I3288
sV\u71df
I4306
sV\u925e
I4307
sV\u9a40
I4308
sV\u923a
I4309
sV\u8964
I4310
sV\u65e7
I4311
sV\u6666
I4312
sV\u6368
I4313
sV\u7feb
I2277
sV\u5ced
I4315
sV\u5d6c
I3917
sV\u5770
I3491
sV\u53f3
I4318
sV\u7192
I2838
sV\u90f5
I4320
sV\u6df7
I4321
sV\u4e76
I280
sV\u6b78
I4323
sV\u87fb
I1968
sV\u61ff
I4325
sV\u827e
I4326
sV\u9dbb
I4281
sV\u9b03
I4328
sV\u5805
I1766
sV\u5984
I4330
sV\u9686
I2605
sV\u8b96
I2633
sV\u6d8c
I4333
sV\u6790
I4334
sV\u6492
I4335
sV\u8015
I4336
sV\u6194
I4337
sV\u5d17
I4050
sV\u7e96
I4339
sV\u7a19
I4058
sV\u5b98
I4341
sV\u559c
I4342
sV\u511f
I4343
sV\u6e21
I4344
sV\u6b23
I4345
sV\u8ca2
I4346
sV\u63a8
I4347
sV\u80aa
I4348
sV\u7dac
I4349
sV\u7aae
I4350
sV\u8523
I2445
sV\u77b0
I4351
sV\u91b4
I4352
sV\u7948
I2932
sV\u6a39
I4354
sV\u5075
I4383
sV\u843d
I4356
sV\u65bc
I4357
sV\u7e41
I4358
sV\u5b43
I4359
sV\u7845
I4360
sV\u99c4
I4201
sV\u6aa0
I3796
sV\u9249
I4363
sV\u96cd
I740
sV\u90ca
I4365
sV\u8dcc
I4366
sV\u67d0
I4367
sV\u6055
I4368
sV\u775b
I4369
sV\u58da
I4370
sV\u55dc
I3967
sV\u52de
I4372
sV\u6853
I3969
sV\u4fe0
I2737
sV\u6b63
I4374
sV\u6ce2
I4296
sV\u5d50
I4376
sV\u947d
I4377
sV\u5f6b
I4378
sV\u7dec
I4379
sV\u9aee
I4380
sV\u57f0
I4381
sV\u54f2
I4382
sV\u9075
I4355
sV\u8d77
I4361
sV\u99b9
I2727
sV\u7957
I4386
sV\u6eb6
I4353
sV\u68fa
I4387
sV\u65fc
I4388
sV\u817f
I4389
sV\u62fe
I2613
s(dp7
I0
g3
sI1
g6
sI2
V\u8181
sI3
V\u8000
sI4
V\u8302
sI5
V\u6785
sI6
V\u8a87
sI7
V\u5000
sI8
V\u6d89
sI9
V\u6c08
sI10
V\u4f0a
sI11
V\u550e
sI12
V\u7991
sI13
V\u9810
sI14
V\u7b12
sI15
V\u9f95
sI16
V\u6297
sI17
V\u6599
sI18
V\u7db4
sI19
V\u4fae
sI20
V\u8ddb
sI21
V\u6e9f
sI22
V\u6d1e
sI23
V\u9020
sI24
V\u74a3
sI25
V\u9322
sI26
V\u77a5
sI27
V\u8ad2
sI28
V\u4e88
sI29
V\u6208
sI30
V\u822c
sI31
V\u6cb3
sI32
V\u6b32
sI33
V\u4fb5
sI34
V\u6e34
sI35
V\u92b7
sI36
V\u7136
sI37
V\u75b9
sI38
V\u5438
sI39
V\u58bb
sI40
V\u585e
sI41
V\u7a3c
sI42
V\u8ac7
sI43
V\u8c48
sI44
V\u53cd
sI45
V\u724c
sI46
V\u620c
sI47
V\u79d1
sI48
V\u7b52
sI49
V\u7e54
sI50
V\u82d7
sI51
V\u6458
sI52
V\u7bcc
sI53
V\u750e
sI54
V\u723b
sI55
V\u8edf
sI56
V\u51e1
sI57
V\u9060
sI58
V\u74e3
sI59
V\u7dba
sI60
V\u77e5
sI61
V\u9664
sI62
V\u7de9
sI63
V\u5c68
sI64
V\u7f6a
sI65
V\u63ed
sI66
V\u8870
sI67
V\u6cf3
sI68
V\u6b72
sI69
V\u4ff5
sI70
V\u8e74
sI71
V\u5176
sI72
V\u75f9
sI73
V\u78fb
sI74
V\u977a
sI75
V\u9bfd
sI76
V\u6101
sI77
V\u8403
sI78
V\u9a6a
sI79
V\u6684
sI80
V\u8986
sI81
V\u6c88
sI82
V\u500b
sI83
V\u530d
sI84
V\u6e43
sI85
V\u560f
sI86
V\u758e
sI87
V\u9b92
sI88
V\u5f15
sI89
V\u9418
sI90
V\u55ab
sI91
V\u8b1d
sI92
V\u889b
sI93
V\u8cc4
sI94
V\u7121
sI95
V\u9047
sI96
V\u79a6
sI97
V\u5d29
sI98
V\u78ef
sI99
V\u5faa
sI100
V\u82ac
sI101
V\u662f
sI102
V\u5a1c
sI103
V\u68b0
sI104
V\u6bb2
sI105
V\u9e9f
sI106
V\u5237
sI107
V\u51b6
sI108
V\u54b8
sI109
V\u983b
sI110
V\u51cb
sI111
V\u7dbe
sI112
V\u7409
sI113
V\u66c4
sI114
V\u7e7b
sI115
V\u8cc8
sI116
V\u904b
sI117
V\u4fca
sI118
V\u934d
sI119
V\u5951
sI120
V\u80e1
sI121
V\u5bd2
sI122
V\u7f55
sI123
V\u5178
sI124
V\u8559
sI125
V\u885b
sI126
V\u67da
sI127
V\u8adc
sI128
V\u4e5f
sI129
V\u6dde
sI130
V\u53e2
sI131
V\u76e4
sI132
V\u79e6
sI133
V\u5d69
sI134
V\u5ce8
sI135
V\u8897
sI136
V\u62ec
sI137
V\u666f
sI138
V\u4f7c
sI139
V\u6ef4
sI140
V\u51f6
sI141
V\u970d
sI142
V\u7350
sI143
V\u57fa
sI144
V\u7b7d
sI145
V\u9e7f
sI146
V\u5dfe
sI147
V\u6583
sI148
V\u8202
sI149
V\u5580
sI150
V\u8d08
sI151
V\u918b
sI152
V\u4e0a
sI153
V\u528d
sI154
V\u978f
sI155
V\u6d32
sI156
V\u7891
sI157
V\u9910
sI158
V\u7d93
sI159
V\u5e95
sI160
V\u5f14
sI161
V\u6016
sI162
V\u8499
sI163
V\u8518
sI164
V\u861a
sI165
V\u925b
sI166
V\u8f9f
sI167
V\u5384
sI168
V\u8006
sI169
V\u99b1
sI170
V\u95a3
sI171
V\u56a5
sI172
V\u7826
sI173
V\u5ca9
sI174
V\u9d28
sI175
V\u61ab
sI176
V\u82ad
sI177
V\u8cb3
sI178
V\u67af
sI179
V\u6930
sI180
V\u8db3
sI181
V\u4f34
sI182
V\u7538
sI183
V\u59bb
sI184
V\u5abd
sI185
V\u9b3c
sI186
V\u5c3e
sI187
V\u5eec
sI188
V\u8846
sI189
V\u6cc9
sI190
V\u91cb
sI191
V\u8e4a
sI192
V\u57cf
sI193
V\u58d1
sI194
V\u7950
sI195
V\u7f54
sI196
V\u8056
sI197
V\u6add
sI198
V\u8b5c
sI199
V\u6fdf
sI200
V\u6c5e
sI201
V\u90e1
sI202
V\u55e3
sI203
V\u9262
sI204
V\u76e5
sI205
V\u5764
sI206
V\u5be7
sI207
V\u9ce9
sI208
V\u7d68
sI209
V\u7e6a
sI210
V\u62ed
sI211
V\u67ef
sI212
V\u5a3c
sI213
V\u6df3
sI214
V\u8a72
sI215
V\u5076
sI216
V\u7578
sI217
V\u79fb
sI218
V\u7afd
sI219
V\u5b7c
sI220
V\u5fff
sI221
V\u8001
sI222
V\u99ed
sI223
V\u6d88
sI224
V\u8e8a
sI225
V\u920d
sI226
V\u970f
sI227
V\u78ec
sI228
V\u9811
sI229
V\u9019
sI230
V\u5a92
sI231
V\u6096
sI232
V\u8a1d
sI233
V\u9d1b
sI234
V\u8f1f
sI235
V\u8c9e
sI236
V\u5021
sI237
V\u51a0
sI238
V\u7523
sI239
V\u7078
sI240
V\u9b27
sI241
V\u812b
sI242
V\u64ae
sI243
V\u8831
sI244
V\u8ab2
sI245
V\u8e35
sI246
V\u65d2
sI247
V\u5439
sI248
V\u75b8
sI249
V\u7a3d
sI250
V\u7cbe
sI251
V\u8292
sI252
V\u8543
sI253
V\u62c2
sI254
V\u87c4
sI255
V\u6b47
sI256
V\u8c49
sI257
V\u73cd
sI258
V\u514b
sI259
V\u4eca
sI260
V\u524d
sI261
V\u574f
sI262
V\u524c
sI263
V\u5851
sI264
V\u99d0
sI265
V\u5e55
sI266
V\u7fd4
sI267
V\u6ef8
sI268
V\u8459
sI269
V\u8f5f
sI270
V\u8cde
sI271
V\u9061
sI272
V\u59d1
sI273
V\u52e2
sI274
V\u5665
sI275
V\u5de8
sI276
V\u816b
sI277
V\u6cd3
sI278
V\u676f
sI279
V\u84ee
sI280
V\u4e76
sI281
V\u5377
sI282
V\u99a8
sI283
V\u58fc
sI284
V\u8fd5
sI285
V\u56fa
sI286
V\u7a7d
sI287
V\u6bae
sI288
V\u5f7f
sI289
V\u7cfe
sI290
V\u661e
sI291
V\u6200
sI292
V\u8102
sI293
V\u8404
sI294
V\u84da
sI295
V\u91c1
sI296
V\u4e08
sI297
V\u8d0a
sI298
V\u518d
sI299
V\u548f
sI300
V\u970e
sI301
V\u9b91
sI302
V\u9e93
sI303
V\u9802
sI304
V\u832f
sI305
V\u851a
sI306
V\u5db8
sI307
V\u732b
sI308
V\u9c31
sI309
V\u96a3
sI310
V\u95a5
sI311
V\u78a7
sI312
V\u7b26
sI313
V\u7fa9
sI314
V\u62ab
sI315
V\u7206
sI316
V\u672e
sI317
V\u6db5
sI318
V\u6c34
sI319
V\u50b7
sI320
V\u7336
sI321
V\u753a
sI322
V\u79bd
sI323
V\u5b8b
sI324
V\u7bb4
sI325
V\u83c1
sI326
V\u6240
sI327
V\u65c5
sI328
V\u8012
sI329
V\u6b46
sI330
V\u8e48
sI331
V\u91cd
sI332
V\u704c
sI333
V\u74cf
sI334
V\u574e
sI335
V\u5ed3
sI336
V\u9952
sI337
V\u6adb
sI338
V\u89dd
sI339
V\u4f5e
sI340
V\u93e1
sI341
V\u5291
sI342
V\u96e3
sI343
V\u5162
sI344
V\u7464
sI345
V\u5310
sI346
V\u7e3d
sI347
V\u82eb
sI348
V\u81ed
sI349
V\u5793
sI350
V\u8a70
sI351
V\u8972
sI352
V\u6df5
sI353
V\u6c74
sI354
V\u57f9
sI355
V\u9678
sI356
V\u787c
sI357
V\u6301
sI358
V\u6280
sI359
V\u6182
sI360
V\u6b86
sI361
V\u8f09
sI362
V\u53ed
sI363
V\u8d8a
sI364
V\u540f
sI365
V\u7b11
sI366
V\u9f6a
sI367
V\u81c7
sI368
V\u8017
sI369
V\u8396
sI370
V\u6698
sI371
V\u8a1b
sI372
V\u5321
sI373
V\u52a0
sI374
V\u51a2
sI375
V\u7525
sI376
V\u54a4
sI377
V\u7827
sI378
V\u5ba6
sI379
V\u5f29
sI380
V\u8ab0
sI381
V\u89b2
sI382
V\u6d35
sI383
V\u8cb4
sI384
V\u6085
sI385
V\u9739
sI386
V\u7a3b
sI387
V\u7825
sI388
V\u7037
sI389
V\u78bc
sI390
V\u7c3f
sI391
V\u6643
sI392
V\u81c2
sI393
V\u6545
sI394
V\u84c4
sI395
V\u6b20
sI396
V\u8f49
sI397
V\u524b
sI398
V\u914d
sI399
V\u6fa3
sI400
V\u57ce
sI401
V\u5b51
sI402
V\u79d2
sI403
V\u834f
sI404
V\u83d6
sI405
V\u8a5b
sI406
V\u88dc
sI407
V\u6c5f
sI408
V\u72e0
sI409
V\u9663
sI410
V\u7565
sI411
V\u9867
sI412
V\u5be6
sI413
V\u5f69
sI414
V\u9ee8
sI415
V\u646f
sI416
V\u585a
sI417
V\u4e73
sI418
V\u8cf4
sI419
V\u9077
sI420
V\u7779
sI421
V\u76f8
sI422
V\u75fa
sI423
V\u597d
sI424
V\u98fc
sI425
V\u742a
sI426
V\u6504
sI427
V\u8987
sI428
V\u9080
sI429
V\u738b
sI430
V\u508d
sI431
V\u5403
sI432
V\u758f
sI433
V\u9b10
sI434
V\u9812
sI435
V\u7c95
sI436
V\u7d14
sI437
V\u6216
sI438
V\u56cd
sI439
V\u689d
sI440
V\u4e1e
sI441
V\u5320
sI442
V\u57a3
sI443
V\u9022
sI444
V\u79a7
sI445
V\u83ab
sI446
V\u7c2a
sI447
V\u87b3
sI448
V\u65af
sI449
V\u6fb3
sI450
V\u51b7
sI451
V\u7236
sI452
V\u9738
sI453
V\u943a
sI454
V\u900b
sI455
V\u7dbf
sI456
V\u7e3e
sI457
V\u8340
sI458
V\u5f8a
sI459
V\u64c5
sI460
V\u6ec9
sI461
V\u4f48
sI462
V\u53cb
sI463
V\u8c4a
sI464
V\u914c
sI465
V\u764e
sI466
V\u769c
sI467
V\u5b50
sI468
V\u8f38
sI469
V\u66d9
sI470
V\u8758
sI471
V\u6bdb
sI472
V\u88dd
sI473
V\u8ddf
sI474
V\u4e5e
sI475
V\u72e1
sI476
V\u5360
sI477
V\u77e3
sI478
V\u54e5
sI479
V\u9f67
sI480
V\u79e7
sI481
V\u5a66
sI482
V\u666e
sI483
V\u8af1
sI484
V\u8b70
sI485
V\u4ff3
sI486
V\u8872
sI487
V\u6d74
sI488
V\u96f9
sI489
V\u6f15
sI490
V\u98fd
sI491
V\u5e7e
sI492
V\u6db8
sI493
V\u6703
sI494
V\u8839
sI495
V\u8584
sI496
V\u8907
sI497
V\u4e09
sI498
V\u4f88
sI499
V\u8c8a
sI500
V\u500d
sI501
V\u6fc3
sI502
V\u968e
sI503
V\u5a11
sI504
V\u9f13
sI505
V\u6842
sI506
V\u8b1b
sI507
V\u50ee
sI508
V\u66c7
sI509
V\u699c
sI510
V\u4e9e
sI511
V\u53a0
sI512
V\u679a
sI513
V\u7425
sI514
V\u95a4
sI515
V\u5927
sI516
V\u7433
sI517
V\u5fa8
sI518
V\u632b
sI519
V\u61ac
sI520
V\u652f
sI521
V\u66ae
sI522
V\u8a31
sI523
V\u6f33
sI524
V\u9ae2
sI525
V\u5137
sI526
V\u92b6
sI527
V\u9d3f
sI528
V\u9ebe
sI529
V\u6241
sI530
V\u63c0
sI531
V\u618a
sI532
V\u8e49
sI533
V\u934b
sI534
V\u8cca
sI535
V\u904d
sI536
V\u91cc
sI537
V\u554f
sI538
V\u5bd0
sI539
V\u5c55
sI540
V\u64da
sI541
V\u885d
sI542
V\u4ede
sI543
V\u7261
sI544
V\u73e0
sI545
V\u7763
sI546
V\u5967
sI547
V\u9ae6
sI548
V\u7e69
sI549
V\u9e7d
sI550
V\u5cea
sI551
V\u606d
sI552
V\u8a71
sI553
V\u4f73
sI554
V\u68f2
sI555
V\u5177
sI556
V\u54fa
sI557
V\u7d7f
sI558
V\u8702
sI559
V\u8e87
sI560
V\u748b
sI561
V\u6b0a
sI562
V\u978d
sI563
V\u5283
sI564
V\u9015
sI565
V\u52ac
sI566
V\u9c10
sI567
V\u5893
sI568
V\u7b95
sI569
V\u7a14
sI570
V\u6697
sI571
V\u8757
sI572
V\u6199
sI573
V\u8018
sI574
V\u6c9b
sI575
V\u4f9d
sI576
V\u7420
sI577
V\u90a3
sI578
V\u8c5a
sI579
V\u53a5
sI580
V\u5224
sI581
V\u5ea7
sI582
V\u9d26
sI583
V\u64ab
sI584
V\u9b2a
sI585
V\u87ad
sI586
V\u715c
sI587
V\u68b3
sI588
V\u6bb5
sI589
V\u8a34
sI590
V\u96b7
sI591
V\u7a08
sI592
V\u71b9
sI593
V\u9038
sI594
V\u7fbd
sI595
V\u7abf
sI596
V\u793e
sI597
V\u85c1
sI598
V\u80c3
sI599
V\u83c5
sI600
V\u4ec7
sI601
V\u6848
sI602
V\u764c
sI603
V\u714e
sI604
V\u7c50
sI605
V\u58d3
sI606
V\u9f52
sI607
V\u6556
sI608
V\u81d9
sI609
V\u8058
sI610
V\u6cdb
sI611
V\u4fdd
sI612
V\u6e5c
sI613
V\u6adf
sI614
V\u95e1
sI615
V\u9762
sI616
V\u53e5
sI617
V\u9264
sI618
V\u7d66
sI619
V\u79e9
sI620
V\u8a62
sI621
V\u62ef
sI622
V\u616e
sI623
V\u6df1
sI624
V\u6c70
sI625
V\u88f3
sI626
V\u96f7
sI627
V\u7576
sI628
V\u51f9
sI629
V\u9078
sI630
V\u5cfb
sI631
V\u737a
sI632
V\u5ffd
sI633
V\u7e7c
sI634
V\u7aff
sI635
V\u8003
sI636
V\u946a
sI637
V\u8305
sI638
V\u6284
sI639
V\u4e07
sI640
V\u8888
sI641
V\u8b8a
sI642
V\u570d
sI643
V\u51e0
sI644
V\u5d11
sI645
V\u5c90
sI646
V\u9813
sI647
V\u5f92
sI648
V\u8617
sI649
V\u8098
sI650
V\u8f1d
sI651
V\u6e9c
sI652
V\u8a1f
sI653
V\u584f
sI654
V\u62f1
sI655
V\u9023
sI656
V\u811a
sI657
V\u7325
sI658
V\u5929
sI659
V\u58a8
sI660
V\u672d
sI661
V\u77f3
sI662
V\u61ae
sI663
V\u8cb0
sI664
V\u8fb2
sI665
V\u73ca
sI666
V\u90b8
sI667
V\u9c3b
sI668
V\u7a3f
sI669
V\u59be
sI670
V\u84c0
sI671
V\u6043
sI672
V\u6fca
sI673
V\u8e47
sI674
V\u8dc6
sI675
V\u744b
sI676
V\u96cc
sI677
V\u91ce
sI678
V\u9d51
sI679
V\u7fd2
sI680
V\u5b55
sI681
V\u9ad4
sI682
V\u6159
sI683
V\u60d8
sI684
V\u51c4
sI685
V\u63da
sI686
V\u8f5d
sI687
V\u6a5f
sI688
V\u9951
sI689
V\u9063
sI690
V\u77e2
sI691
V\u52e4
sI692
V\u5de6
sI693
V\u90fd
sI694
V\u676d
sI695
V\u826f
sI696
V\u6cf0
sI697
V\u7bd2
sI698
V\u65ff
sI699
V\u9677
sI700
V\u7a7f
sI701
V\u701d
sI702
V\u6602
sI703
V\u8efb
sI704
V\u958b
sI705
V\u6a0a
sI706
V\u968d
sI707
V\u642c
sI708
V\u5c91
sI709
V\u8236
sI710
V\u5993
sI711
V\u7a95
sI712
V\u70af
sI713
V\u6797
sI714
V\u6416
sI715
V\u621a
sI716
V\u6e9d
sI717
V\u8f1c
sI718
V\u6fb1
sI719
V\u9324
sI720
V\u5fa7
sI721
V\u78a9
sI722
V\u9928
sI723
V\u65ab
sI724
V\u672c
sI725
V\u6adc
sI726
V\u4e32
sI727
V\u8e5f
sI728
V\u7436
sI729
V\u70b9
sI730
V\u7dbb
sI731
V\u523a
sI732
V\u5f3c
sI733
V\u5bbf
sI734
V\u5834
sI735
V\u64c1
sI736
V\u61c3
sI737
V\u6642
sI738
V\u6fc7
sI739
V\u8c46
sI740
V\u96cd
sI741
V\u73cf
sI742
V\u904e
sI743
V\u7d50
sI744
V\u59d3
sI745
V\u6cab
sI746
V\u5b54
sI747
V\u6158
sI748
V\u4e10
sI749
V\u4f5c
sI750
V\u54e1
sI751
V\u91e3
sI752
V\u9662
sI753
V\u716c
sI754
V\u7968
sI755
V\u59e6
sI756
V\u86ed
sI757
V\u83ef
sI758
V\u8d70
sI759
V\u8e72
sI760
V\u8b74
sI761
V\u57f7
sI762
V\u5476
sI763
V\u50f9
sI764
V\u9178
sI765
V\u7dfb
sI766
V\u8b3e
sI767
V\u5f7c
sI768
V\u587e
sI769
V\u8247
sI770
V\u8205
sI771
V\u6c86
sI772
V\u8988
sI773
V\u760d
sI774
V\u578c
sI775
V\u530f
sI776
V\u708e
sI777
V\u5c11
sI778
V\u6e19
sI779
V\u9913
sI780
V\u9e92
sI781
V\u7b94
sI782
V\u6717
sI783
V\u7f98
sI784
V\u8019
sI785
V\u6d1b
sI786
V\u829a
sI787
V\u6ce0
sI788
V\u8f9c
sI789
V\u889e
sI790
V\u5225
sI791
V\u5f27
sI792
V\u59a8
sI793
V\u7aaa
sI794
V\u862d
sI795
V\u632f
sI796
V\u9bc9
sI797
V\u6933
sI798
V\u6eb2
sI799
V\u6a35
sI800
V\u7737
sI801
V\u6a48
sI802
V\u9d3b
sI803
V\u5e3d
sI804
V\u58be
sI805
V\u63c4
sI806
V\u58df
sI807
V\u964d
sI808
V\u93d6
sI809
V\u5c51
sI810
V\u9a55
sI811
V\u70cf
sI812
V\u6a13
sI813
V\u84d6
sI814
V\u6059
sI815
V\u81d8
sI816
V\u4e5d
sI817
V\u4fd1
sI818
V\u96e2
sI819
V\u53e4
sI820
V\u6a58
sI821
V\u59e8
sI822
V\u7aea
sI823
V\u87ec
sI824
V\u8deb
sI825
V\u4ef2
sI826
V\u8a75
sI827
V\u9777
sI828
V\u645b
sI829
V\u51f8
sI830
V\u5e7d
sI831
V\u7ffc
sI832
V\u98fe
sI833
V\u8398
sI834
V\u6f06
sI835
V\u6b89
sI836
V\u8a08
sI837
V\u968b
sI838
V\u540c
sI839
V\u908f
sI840
V\u59ac
sI841
V\u5f91
sI842
V\u7e10
sI843
V\u7a93
sI844
V\u7d12
sI845
V\u4e9b
sI846
V\u611a
sI847
V\u9edb
sI848
V\u689f
sI849
V\u5704
sI850
V\u7620
sI851
V\u52a3
sI852
V\u615a
sI853
V\u51a5
sI854
V\u5024
sI855
V\u7ca7
sI856
V\u5f26
sI857
V\u66ab
sI858
V\u592a
sI859
V\u842c
sI860
V\u80af
sI861
V\u8fb1
sI862
V\u8e30
sI863
V\u6ab3
sI864
V\u80b2
sI865
V\u88df
sI866
V\u73b9
sI867
V\u5238
sI868
V\u9ebb
sI869
V\u513a
sI870
V\u5dbd
sI871
V\u5c3c
sI872
V\u5b3e
sI873
V\u8e0a
sI874
V\u8cc7
sI875
V\u4f46
sI876
V\u8a48
sI877
V\u96cb
sI878
V\u694a
sI879
V\u75cd
sI880
V\u50cf
sI881
V\u9ad3
sI882
V\u7562
sI883
V\u99d5
sI884
V\u9854
sI885
V\u6756
sI886
V\u6258
sI887
V\u662d
sI888
V\u8ddd
sI889
V\u68df
sI890
V\u7de8
sI891
V\u71e5
sI892
V\u7ce7
sI893
V\u9f66
sI894
V\u5be9
sI895
V\u596a
sI896
V\u65ed
sI897
V\u846c
sI898
V\u636e
sI899
V\u4ff1
sI900
V\u7be9
sI901
V\u853f
sI902
V\u74f7
sI903
V\u745b
sI904
V\u5efb
sI905
V\u6c55
sI906
V\u8f14
sI907
V\u6582
sI908
V\u8105
sI909
V\u4f86
sI910
V\u85ed
sI911
V\u548c
sI912
V\u900f
sI913
V\u5f11
sI914
V\u5915
sI915
V\u6417
sI916
V\u6518
sI917
V\u6298
sI918
V\u6e1b
sI919
V\u819a
sI920
V\u88e8
sI921
V\u881f
sI922
V\u6b9e
sI923
V\u6ff1
sI924
V\u7f3e
sI925
V\u70a4
sI926
V\u7c27
sI927
V\u9aa8
sI928
V\u79aa
sI929
V\u852d
sI930
V\u602f
sI931
V\u6f31
sI932
V\u9d72
sI933
V\u88b4
sI934
V\u5339
sI935
V\u71ba
sI936
V\u6243
sI937
V\u65c2
sI938
V\u80c4
sI939
V\u8b49
sI940
V\u964b
sI941
V\u5121
sI942
V\u75a3
sI943
V\u504f
sI944
V\u69cc
sI945
V\u5dd2
sI946
V\u7955
sI947
V\u58d4
sI948
V\u8457
sI949
V\u62d8
sI950
V\u6e5b
sI951
V\u8cdc
sI952
V\u9761
sI953
V\u56e0
sI954
V\u95e2
sI955
V\u5165
sI956
V\u5b69
sI957
V\u5dfd
sI958
V\u59ea
sI959
V\u856d
sI960
V\u64ec
sI961
V\u606f
sI962
V\u63ee
sI963
V\u4ef0
sI964
V\u8a73
sI965
V\u6975
sI966
V\u88f4
sI967
V\u97f6
sI968
V\u52f8
sI969
V\u5e7b
sI970
V\u51fa
sI971
V\u8b6c
sI972
V\u95d4
sI973
V\u6700
sI974
V\u6383
sI975
V\u8085
sI976
V\u9957
sI977
V\u6d87
sI978
V\u578b
sI979
V\u718f
sI980
V\u520e
sI981
V\u9c12
sI982
V\u5914
sI983
V\u6597
sI984
V\u8299
sI985
V\u4f9b
sI986
V\u8c9d
sI987
V\u6a1e
sI988
V\u7720
sI989
V\u6cbc
sI990
V\u786b
sI991
V\u7c07
sI992
V\u7aa9
sI993
V\u905d
sI994
V\u582a
sI995
V\u64ad
sI996
V\u852c
sI997
V\u622e
sI998
V\u8eb1
sI999
V\u68b5
sI1000
V\u5636
sI1001
V\u5eb5
sI1002
V\u56de
sI1003
V\u79bf
sI1004
V\u798a
sI1005
V\u60c5
sI1006
V\u6144
sI1007
V\u6dc7
sI1008
V\u826e
sI1009
V\u57cb
sI1010
V\u754c
sI1011
V\u91cf
sI1012
V\u9ed1
sI1013
V\u7f50
sI1014
V\u5bd3
sI1015
V\u58d5
sI1016
V\u5954
sI1017
V\u65d7
sI1018
V\u62d9
sI1019
V\u4fdb
sI1020
V\u805a
sI1021
V\u6d5c
sI1022
V\u8a5e
sI1023
V\u76e1
sI1024
V\u6f11
sI1025
V\u53e3
sI1026
V\u7462
sI1027
V\u50e5
sI1028
V\u5167
sI1029
V\u5de7
sI1030
V\u656c
sI1031
V\u626e
sI1032
V\u6f70
sI1033
V\u6c72
sI1034
V\u88f5
sI1035
V\u8974
sI1036
V\u9676
sI1037
V\u72f9
sI1038
V\u7378
sI1039
V\u7ffb
sI1040
V\u907a
sI1041
V\u5cfd
sI1042
V\u59ff
sI1043
V\u6894
sI1044
V\u8303
sI1045
V\u8005
sI1046
V\u4e86
sI1047
V\u570b
sI1048
V\u540d
sI1049
V\u5e11
sI1050
V\u5f90
sI1051
V\u7c92
sI1052
V\u7085
sI1053
V\u6696
sI1054
V\u6398
sI1055
V\u8f1b
sI1056
V\u609a
sI1057
V\u5e1b
sI1058
V\u8a9e
sI1059
V\u7621
sI1060
V\u8271
sI1061
V\u5323
sI1062
V\u619a
sI1063
V\u51a4
sI1064
V\u5ea6
sI1065
V\u5a29
sI1066
V\u8b77
sI1067
V\u672b
sI1068
V\u6846
sI1069
V\u642d
sI1070
V\u65ac
sI1071
V\u812f
sI1072
V\u82ae
sI1073
V\u8fb0
sI1074
V\u8b33
sI1075
V\u69b4
sI1076
V\u7537
sI1077
V\u5239
sI1078
V\u9f3b
sI1079
V\u5dbc
sI1080
V\u87c0
sI1081
V\u4ec6
sI1082
V\u8af6
sI1083
V\u72ce
sI1084
V\u5e79
sI1085
V\u59d4
sI1086
V\u6557
sI1087
V\u4ff8
sI1088
V\u8259
sI1089
V\u4f5b
sI1090
V\u80da
sI1091
V\u6c5d
sI1092
V\u895f
sI1093
V\u6ade
sI1094
V\u7661
sI1095
V\u57e0
sI1096
V\u74e2
sI1097
V\u5065
sI1098
V\u5950
sI1099
V\u7a69
sI1100
V\u9be8
sI1101
V\u65ec
sI1102
V\u81fc
sI1103
V\u8ff0
sI1104
V\u89f4
sI1105
V\u9577
sI1106
V\u96f6
sI1107
V\u7279
sI1108
V\u53f8
sI1109
V\u86fe
sI1110
V\u797f
sI1111
V\u8981
sI1112
V\u6c83
sI1113
V\u8b02
sI1114
V\u8106
sI1115
V\u6883
sI1116
V\u5e8f
sI1117
V\u5d0e
sI1118
V\u5191
sI1119
V\u9010
sI1120
V\u5614
sI1121
V\u6a97
sI1122
V\u8d99
sI1123
V\u809b
sI1124
V\u821c
sI1125
V\u5820
sI1126
V\u5687
sI1127
V\u72a7
sI1128
V\u7126
sI1129
V\u55a9
sI1130
V\u88ab
sI1131
V\u6bad
sI1132
V\u6eaf
sI1133
V\u8587
sI1134
V\u6db2
sI1135
V\u67b5
sI1136
V\u5293
sI1137
V\u59d9
sI1138
V\u5c38
sI1139
V\u5f3a
sI1140
V\u76bf
sI1141
V\u553e
sI1142
V\u69c1
sI1143
V\u8840
sI1144
V\u8cc3
sI1145
V\u8fc5
sI1146
V\u8e44
sI1147
V\u62c7
sI1148
V\u8146
sI1149
V\u85c9
sI1150
V\u78cb
sI1151
V\u5ecf
sI1152
V\u91d1
sI1153
V\u9050
sI1154
V\u5352
sI1155
V\u80db
sI1156
V\u86df
sI1157
V\u655e
sI1158
V\u9591
sI1159
V\u61ba
sI1160
V\u92e7
sI1161
V\u9cf6
sI1162
V\u5468
sI1163
V\u576a
sI1164
V\u6eef
sI1165
V\u6d6e
sI1166
V\u7c3e
sI1167
V\u6372
sI1168
V\u67f5
sI1169
V\u6674
sI1170
V\u9df9
sI1171
V\u9c78
sI1172
V\u50fb
sI1173
V\u56ff
sI1174
V\u5f66
sI1175
V\u6b82
sI1176
V\u8f05
sI1177
V\u9e97
sI1178
V\u8207
sI1179
V\u732a
sI1180
V\u6488
sI1181
V\u9999
sI1182
V\u7413
sI1183
V\u75c2
sI1184
V\u9694
sI1185
V\u8a17
sI1186
V\u8996
sI1187
V\u6d19
sI1188
V\u6c98
sI1189
V\u9169
sI1190
V\u661f
sI1191
V\u5ba2
sI1192
V\u9ea4
sI1193
V\u54a8
sI1194
V\u8df3
sI1195
V\u6e2f
sI1196
V\u6b49
sI1197
V\u66b4
sI1198
V\u9a37
sI1199
V\u7d39
sI1200
V\u5cb8
sI1201
V\u503b
sI1202
V\u963f
sI1203
V\u75be
sI1204
V\u8941
sI1205
V\u5420
sI1206
V\u6ec4
sI1207
V\u6247
sI1208
V\u81c6
sI1209
V\u8549
sI1210
V\u584b
sI1211
V\u7b4d
sI1212
V\u5acc
sI1213
V\u904f
sI1214
V\u69d6
sI1215
V\u6d59
sI1216
V\u83ce
sI1217
V\u62dc
sI1218
V\u865f
sI1219
V\u6f51
sI1220
V\u5be2
sI1221
V\u7267
sI1222
V\u71e6
sI1223
V\u8043
sI1224
V\u54e8
sI1225
V\u886b
sI1226
V\u6e6f
sI1227
V\u6dee
sI1228
V\u60f0
sI1229
V\u6775
sI1230
V\u66f4
sI1231
V\u7d79
sI1232
V\u5955
sI1233
V\u537d
sI1234
V\u72fc
sI1235
V\u55fe
sI1236
V\u6881
sI1237
V\u6a02
sI1238
V\u5b95
sI1239
V\u8180
sI1240
V\u660a
sI1241
V\u5b0c
sI1242
V\u5c0e
sI1243
V\u5091
sI1244
V\u9593
sI1245
V\u9695
sI1246
V\u6816
sI1247
V\u6c99
sI1248
V\u6e1a
sI1249
V\u829d
sI1250
V\u879f
sI1251
V\u58a1
sI1252
V\u9920
sI1253
V\u9ea5
sI1254
V\u5026
sI1255
V\u7528
sI1256
V\u962a
sI1257
V\u8b2c
sI1258
V\u8faf
sI1259
V\u80b1
sI1260
V\u6734
sI1261
V\u7d88
sI1262
V\u7cb9
sI1263
V\u97dc
sI1264
V\u543e
sI1265
V\u88c1
sI1266
V\u7761
sI1267
V\u7b87
sI1268
V\u6ec5
sI1269
V\u8f44
sI1270
V\u84c9
sI1271
V\u6548
sI1272
V\u79cb
sI1273
V\u7b4c
sI1274
V\u50d1
sI1275
V\u79b9
sI1276
V\u7252
sI1277
V\u96d5
sI1278
V\u6bd7
sI1279
V\u7165
sI1280
V\u64bb
sI1281
V\u98e1
sI1282
V\u7960
sI1283
V\u7de3
sI1284
V\u5a62
sI1285
V\u9ee5
sI1286
V\u966a
sI1287
V\u8aed
sI1288
V\u7b69
sI1289
V\u6fef
sI1290
V\u60f1
sI1291
V\u6170
sI1292
V\u8272
sI1293
V\u8774
sI1294
V\u71fb
sI1295
V\u613e
sI1296
V\u72fd
sI1297
V\u937c
sI1298
V\u97ff
sI1299
V\u9210
sI1300
V\u5598
sI1301
V\u6f84
sI1302
V\u6307
sI1303
V\u8086
sI1304
V\u656d
sI1305
V\u8096
sI1306
V\u7a0d
sI1307
V\u5b8c
sI1308
V\u5f0f
sI1309
V\u84ec
sI1310
V\u7011
sI1311
V\u9190
sI1312
V\u7513
sI1313
V\u7292
sI1314
V\u806f
sI1315
V\u8b17
sI1316
V\u8896
sI1317
V\u611b
sI1318
V\u671f
sI1319
V\u649e
sI1320
V\u5821
sI1321
V\u5e25
sI1322
V\u7fa4
sI1323
V\u90a6
sI1324
V\u95a8
sI1325
V\u96aa
sI1326
V\u8a2d
sI1327
V\u4f2f
sI1328
V\u6cae
sI1329
V\u6031
sI1330
V\u91c9
sI1331
V\u9df2
sI1332
V\u5c39
sI1333
V\u7db8
sI1334
V\u723d
sI1335
V\u6841
sI1336
V\u89c0
sI1337
V\u934a
sI1338
V\u4e45
sI1339
V\u4fc4
sI1340
V\u8591
sI1341
V\u8449
sI1342
V\u994b
sI1343
V\u7a4d
sI1344
V\u5bcc
sI1345
V\u7051
sI1346
V\u71d0
sI1347
V\u5553
sI1348
V\u52d2
sI1349
V\u4f70
sI1350
V\u75e2
sI1351
V\u6dd8
sI1352
V\u83dc
sI1353
V\u675f
sI1354
V\u5861
sI1355
V\u7d10
sI1356
V\u81fa
sI1357
V\u7469
sI1358
V\u96ea
sI1359
V\u8a6d
sI1360
V\u6bec
sI1361
V\u6f6f
sI1362
V\u6cee
sI1363
V\u773a
sI1364
V\u67f4
sI1365
V\u5c79
sI1366
V\u5efa
sI1367
V\u727d
sI1368
V\u777f
sI1369
V\u62b1
sI1370
V\u81a9
sI1371
V\u8a00
sI1372
V\u8d85
sI1373
V\u8087
sI1374
V\u8700
sI1375
V\u6789
sI1376
V\u798d
sI1377
V\u980c
sI1378
V\u9f0e
sI1379
V\u7210
sI1380
V\u7693
sI1381
V\u5112
sI1382
V\u6897
sI1383
V\u90b5
sI1384
V\u4e18
sI1385
V\u629b
sI1386
V\u819d
sI1387
V\u801c
sI1388
V\u649f
sI1389
V\u671e
sI1390
V\u7ba1
sI1391
V\u5a20
sI1392
V\u5922
sI1393
V\u5c24
sI1394
V\u9326
sI1395
V\u8caf
sI1396
V\u6f38
sI1397
V\u6230
sI1398
V\u9954
sI1399
V\u5fb9
sI1400
V\u5e38
sI1401
V\u7d3a
sI1402
V\u51bd
sI1403
V\u903c
sI1404
V\u74bf
sI1405
V\u6bc1
sI1406
V\u8de1
sI1407
V\u6942
sI1408
V\u60c7
sI1409
V\u5c60
sI1410
V\u7acb
sI1411
V\u984c
sI1412
V\u5f4e
sI1413
V\u5152
sI1414
V\u75d5
sI1415
V\u58fb
sI1416
V\u68d7
sI1417
V\u4e58
sI1418
V\u62db
sI1419
V\u6d5a
sI1420
V\u675e
sI1421
V\u5be1
sI1422
V\u5ee3
sI1423
V\u5962
sI1424
V\u5de5
sI1425
V\u5c64
sI1426
V\u50e7
sI1427
V\u5366
sI1428
V\u77e9
sI1429
V\u5668
sI1430
V\u8aeb
sI1431
V\u756a
sI1432
V\u6cef
sI1433
V\u6f6e
sI1434
V\u6a9c
sI1435
V\u66f3
sI1436
V\u7c12
sI1437
V\u6f3f
sI1438
V\u798e
sI1439
V\u5e78
sI1440
V\u52fb
sI1441
V\u6cbe
sI1442
V\u51fd
sI1443
V\u907c
sI1444
V\u73de
sI1445
V\u777e
sI1446
V\u8b01
sI1447
V\u6a80
sI1448
V\u4e03
sI1449
V\u8d05
sI1450
V\u7375
sI1451
V\u81c0
sI1452
V\u6709
sI1453
V\u6688
sI1454
V\u7a0b
sI1455
V\u788c
sI1456
V\u5c0f
sI1457
V\u7f8e
sI1458
V\u5192
sI1459
V\u7515
sI1460
V\u6817
sI1461
V\u6b96
sI1462
V\u821b
sI1463
V\u725d
sI1464
V\u8f9b
sI1465
V\u67c4
sI1466
V\u7aa0
sI1467
V\u7e23
sI1468
V\u501a
sI1469
V\u5027
sI1470
V\u7729
sI1471
V\u96a8
sI1472
V\u55aa
sI1473
V\u93ad
sI1474
V\u8331
sI1475
V\u61b2
sI1476
V\u84b4
sI1477
V\u5bb6
sI1478
V\u5eb8
sI1479
V\u523b
sI1480
V\u5dba
sI1481
V\u8ecb
sI1482
V\u914b
sI1483
V\u743f
sI1484
V\u4e43
sI1485
V\u8eca
sI1486
V\u6cc4
sI1487
V\u63c6
sI1488
V\u6749
sI1489
V\u7fce
sI1490
V\u5351
sI1491
V\u72d0
sI1492
V\u71d2
sI1493
V\u74d4
sI1494
V\u8857
sI1495
V\u6bd6
sI1496
V\u4ed8
sI1497
V\u6dda
sI1498
V\u60dc
sI1499
V\u7ae0
sI1500
V\u5e63
sI1501
V\u5b7a
sI1502
V\u73e6
sI1503
V\u9769
sI1504
V\u96e8
sI1505
V\u6a6b
sI1506
V\u4e26
sI1507
V\u696d
sI1508
V\u4fee
sI1509
V\u81cd
sI1510
V\u6673
sI1511
V\u61f2
sI1512
V\u6575
sI1513
V\u64f4
sI1514
V\u5bf6
sI1515
V\u5f79
sI1516
V\u7e55
sI1517
V\u9dfa
sI1518
V\u717d
sI1519
V\u947f
sI1520
V\u4fd4
sI1521
V\u8b00
sI1522
V\u4f83
sI1523
V\u7357
sI1524
V\u6689
sI1525
V\u6708
sI1526
V\u7b8b
sI1527
V\u840a
sI1528
V\u788d
sI1529
V\u990c
sI1530
V\u7d8f
sI1531
V\u652c
sI1532
V\u9291
sI1533
V\u9310
sI1534
V\u9152
sI1535
V\u5012
sI1536
V\u5495
sI1537
V\u8a16
sI1538
V\u639b
sI1539
V\u809d
sI1540
V\u659f
sI1541
V\u6a84
sI1542
V\u7b20
sI1543
V\u7ca5
sI1544
V\u8607
sI1545
V\u5728
sI1546
V\u5586
sI1547
V\u6daf
sI1548
V\u82b1
sI1549
V\u5109
sI1550
V\u67b3
sI1551
V\u6f5f
sI1552
V\u5a36
sI1553
V\u7f38
sI1554
V\u53bb
sI1555
V\u5c3a
sI1556
V\u513c
sI1557
V\u4fc3
sI1558
V\u838a
sI1559
V\u85b7
sI1560
V\u61c7
sI1561
V\u6246
sI1562
V\u66c9
sI1563
V\u994c
sI1564
V\u82b9
sI1565
V\u97d3
sI1566
V\u7554
sI1567
V\u8a56
sI1568
V\u4ed9
sI1569
V\u6f58
sI1570
V\u63db
sI1571
V\u6c5a
sI1572
V\u53e6
sI1573
V\u865e
sI1574
V\u5ae1
sI1575
V\u7b60
sI1576
V\u7fe3
sI1577
V\u9ce5
sI1578
V\u71e7
sI1579
V\u6490
sI1580
V\u96e9
sI1581
V\u7768
sI1582
V\u6beb
sI1583
V\u546a
sI1584
V\u8def
sI1585
V\u82f1
sI1586
V\u67f3
sI1587
V\u8072
sI1588
V\u6574
sI1589
V\u7a76
sI1590
V\u9c7a
sI1591
V\u70fd
sI1592
V\u517c
sI1593
V\u75ff
sI1594
V\u767e
sI1595
V\u8b80
sI1596
V\u8f03
sI1597
V\u8882
sI1598
V\u6c05
sI1599
V\u8107
sI1600
V\u5740
sI1601
V\u7b0b
sI1602
V\u74e0
sI1603
V\u93c3
sI1604
V\u5211
sI1605
V\u5919
sI1606
V\u5713
sI1607
V\u5442
sI1608
V\u9594
sI1609
V\u4e19
sI1610
V\u831b
sI1611
V\u601d
sI1612
V\u819c
sI1613
V\u7b0a
sI1614
V\u7b9a
sI1615
V\u9127
sI1616
V\u97a8
sI1617
V\u4eae
sI1618
V\u6231
sI1619
V\u5ac9
sI1620
V\u60b2
sI1621
V\u821f
sI1622
V\u5937
sI1623
V\u733b
sI1624
V\u5cba
sI1625
V\u97cb
sI1626
V\u4f43
sI1627
V\u88c2
sI1628
V\u6377
sI1629
V\u6147
sI1630
V\u6649
sI1631
V\u84cd
sI1632
V\u7b4b
sI1633
V\u64ca
sI1634
V\u984d
sI1635
V\u9ece
sI1636
V\u540e
sI1637
V\u7455
sI1638
V\u75d4
sI1639
V\u6957
sI1640
V\u8ad6
sI1641
V\u4e59
sI1642
V\u6fd8
sI1643
V\u605d
sI1644
V\u61dc
sI1645
V\u7a61
sI1646
V\u98e2
sI1647
V\u5c65
sI1648
V\u7167
sI1649
V\u7669
sI1650
V\u8b6b
sI1651
V\u6271
sI1652
V\u6773
sI1653
V\u8475
sI1654
V\u65f4
sI1655
V\u7af6
sI1656
V\u7e79
sI1657
V\u68d5
sI1658
V\u737b
sI1659
V\u7435
sI1660
V\u707d
sI1661
V\u71fc
sI1662
V\u757f
sI1663
V\u76fe
sI1664
V\u7a62
sI1665
V\u6f02
sI1666
V\u7e52
sI1667
V\u6687
sI1668
V\u7200
sI1669
V\u9f8d
sI1670
V\u5e0c
sI1671
V\u790e
sI1672
V\u7591
sI1673
V\u5410
sI1674
V\u5712
sI1675
V\u9214
sI1676
V\u8d16
sI1677
V\u99ae
sI1678
V\u679d
sI1679
V\u6b39
sI1680
V\u829f
sI1681
V\u5531
sI1682
V\u78a3
sI1683
V\u5ba5
sI1684
V\u96a7
sI1685
V\u64b0
sI1686
V\u5028
sI1687
V\u8cab
sI1688
V\u532a
sI1689
V\u8fad
sI1690
V\u6e2c
sI1691
V\u60b3
sI1692
V\u6234
sI1693
V\u5eb7
sI1694
V\u59b9
sI1695
V\u9838
sI1696
V\u77bd
sI1697
V\u763c
sI1698
V\u60b4
sI1699
V\u814b
sI1700
V\u6c40
sI1701
V\u6bc5
sI1702
V\u6a44
sI1703
V\u86c7
sI1704
V\u61c9
sI1705
V\u918d
sI1706
V\u834a
sI1707
V\u5fcd
sI1708
V\u594e
sI1709
V\u5254
sI1710
V\u4ed7
sI1711
V\u8b5a
sI1712
V\u865c
sI1713
V\u82df
sI1714
V\u7164
sI1715
V\u5de1
sI1716
V\u7c60
sI1717
V\u5f62
sI1718
V\u5be5
sI1719
V\u76e7
sI1720
V\u7566
sI1721
V\u978b
sI1722
V\u7e93
sI1723
V\u696e
sI1724
V\u65f1
sI1725
V\u60f3
sI1726
V\u8912
sI1727
V\u5ef7
sI1728
V\u7d76
sI1729
V\u81be
sI1730
V\u767c
sI1731
V\u52ff
sI1732
V\u6f82
sI1733
V\u596d
sI1734
V\u6607
sI1735
V\u75b1
sI1736
V\u6109
sI1737
V\u5c0b
sI1738
V\u7316
sI1739
V\u7e8c
sI1740
V\u9a0f
sI1741
V\u6523
sI1742
V\u7511
sI1743
V\u5490
sI1744
V\u8fc2
sI1745
V\u5315
sI1746
V\u6e17
sI1747
V\u8919
sI1748
V\u7b45
sI1749
V\u8b9a
sI1750
V\u671d
sI1751
V\u621f
sI1752
V\u8ac4
sI1753
V\u7d21
sI1754
V\u5aa4
sI1755
V\u7627
sI1756
V\u5f70
sI1757
V\u90a8
sI1758
V\u4eac
sI1759
V\u69ae
sI1760
V\u7149
sI1761
V\u8033
sI1762
V\u8335
sI1763
V\u5e37
sI1764
V\u543b
sI1765
V\u56bc
sI1766
V\u5805
sI1767
V\u71be
sI1768
V\u6d41
sI1769
V\u8cc0
sI1770
V\u6843
sI1771
V\u4fc2
sI1772
V\u8dba
sI1773
V\u65c6
sI1774
V\u8f4d
sI1775
V\u5c4b
sI1776
V\u83ca
sI1777
V\u73d6
sI1778
V\u8ecc
sI1779
V\u9053
sI1780
V\u8782
sI1781
V\u68d8
sI1782
V\u845b
sI1783
V\u66dc
sI1784
V\u6a17
sI1785
V\u7d61
sI1786
V\u7ce0
sI1787
V\u6c76
sI1788
V\u7169
sI1789
V\u90e8
sI1790
V\u8c6b
sI1791
V\u53ea
sI1792
V\u6f6d
sI1793
V\u5fa9
sI1794
V\u8073
sI1795
V\u87f2
sI1796
V\u99ff
sI1797
V\u5e77
sI1798
V\u547b
sI1799
V\u5bfa
sI1800
V\u82ab
sI1801
V\u62d4
sI1802
V\u746a
sI1803
V\u8a85
sI1804
V\u8b04
sI1805
V\u6787
sI1806
V\u8089
sI1807
V\u8108
sI1808
V\u820a
sI1809
V\u9b51
sI1810
V\u5b8f
sI1811
V\u5510
sI1812
V\u6f97
sI1813
V\u88d8
sI1814
V\u7005
sI1815
V\u659b
sI1816
V\u669d
sI1817
V\u871c
sI1818
V\u5ca1
sI1819
V\u7d20
sI1820
V\u59a3
sI1821
V\u7d07
sI1822
V\u5426
sI1823
V\u722a
sI1824
V\u4ead
sI1825
V\u6f2c
sI1826
V\u6baf
sI1827
V\u76dc
sI1828
V\u81b3
sI1829
V\u62b5
sI1830
V\u5fb7
sI1831
V\u95bb
sI1832
V\u773c
sI1833
V\u703e
sI1834
V\u6cc1
sI1835
V\u9d61
sI1836
V\u69c3
sI1837
V\u5948
sI1838
V\u6148
sI1839
V\u7dcb
sI1840
V\u8339
sI1841
V\u9ecd
sI1842
V\u5f4c
sI1843
V\u984e
sI1844
V\u7652
sI1845
V\u52d5
sI1846
V\u5354
sI1847
V\u4fd7
sI1848
V\u88d9
sI1849
V\u675c
sI1850
V\u805e
sI1851
V\u9d60
sI1852
V\u5e62
sI1853
V\u7ae5
sI1854
V\u5b64
sI1855
V\u5c3f
sI1856
V\u5168
sI1857
V\u6deb
sI1858
V\u526a
sI1859
V\u6bef
sI1860
V\u886e
sI1861
V\u5169
sI1862
V\u81f3
sI1863
V\u6cbf
sI1864
V\u8a0a
sI1865
V\u5978
sI1866
V\u7a7a
sI1867
V\u577c
sI1868
V\u9742
sI1869
V\u4e82
sI1870
V\u8188
sI1871
V\u7d0b
sI1872
V\u628a
sI1873
V\u5f8c
sI1874
V\u7b0f
sI1875
V\u788e
sI1876
V\u5411
sI1877
V\u9394
sI1878
V\u6c96
sI1879
V\u55c5
sI1880
V\u679c
sI1881
V\u7444
sI1882
V\u7c21
sI1883
V\u7da0
sI1884
V\u5a25
sI1885
V\u5ba4
sI1886
V\u9727
sI1887
V\u5029
sI1888
V\u52aa
sI1889
V\u4e2d
sI1890
V\u8431
sI1891
V\u65b0
sI1892
V\u8235
sI1893
V\u5f37
sI1894
V\u9839
sI1895
V\u9375
sI1896
V\u7aba
sI1897
V\u533f
sI1898
V\u50be
sI1899
V\u6c41
sI1900
V\u97a0
sI1901
V\u924b
sI1902
V\u51cd
sI1903
V\u5fcc
sI1904
V\u9b4f
sI1905
V\u78ce
sI1906
V\u9451
sI1907
V\u76d2
sI1908
V\u53d4
sI1909
V\u4f57
sI1910
V\u8859
sI1911
V\u6ada
sI1912
V\u665d
sI1913
V\u80de
sI1914
V\u7de0
sI1915
V\u5ee2
sI1916
V\u9a65
sI1917
V\u7be4
sI1918
V\u74e6
sI1919
V\u9069
sI1920
V\u8d6b
sI1921
V\u92ea
sI1922
V\u4e6d
sI1923
V\u6fec
sI1924
V\u8b6f
sI1925
V\u68ee
sI1926
V\u8471
sI1927
V\u65f0
sI1928
V\u6173
sI1929
V\u66f2
sI1930
V\u63f4
sI1931
V\u5f77
sI1932
V\u5cf6
sI1933
V\u5879
sI1934
V\u59f8
sI1935
V\u7afa
sI1936
V\u967d
sI1937
V\u537f
sI1938
V\u6f81
sI1939
V\u4e00
sI1940
V\u8389
sI1941
V\u8208
sI1942
V\u810a
sI1943
V\u7791
sI1944
V\u9293
sI1945
V\u5195
sI1946
V\u9014
sI1947
V\u6a50
sI1948
V\u78fe
sI1949
V\u8a18
sI1950
V\u859d
sI1951
V\u641c
sI1952
V\u609f
sI1953
V\u6b04
sI1954
V\u5fa1
sI1955
V\u7d22
sI1956
V\u59a5
sI1957
V\u5824
sI1958
V\u74a7
sI1959
V\u73a9
sI1960
V\u4eab
sI1961
V\u512a
sI1962
V\u68af
sI1963
V\u6089
sI1964
V\u82b3
sI1965
V\u81b5
sI1966
V\u6108
sI1967
V\u5bb9
sI1968
V\u87fb
sI1969
V\u96bb
sI1970
V\u793a
sI1971
V\u95bd
sI1972
V\u543c
sI1973
V\u99b4
sI1974
V\u6fc1
sI1975
V\u53e1
sI1976
V\u6ac3
sI1977
V\u620a
sI1978
V\u64c7
sI1979
V\u6746
sI1980
V\u6248
sI1981
V\u5dcd
sI1982
V\u7c4c
sI1983
V\u9b4e
sI1984
V\u9650
sI1985
V\u71d5
sI1986
V\u9054
sI1987
V\u6cd7
sI1988
V\u85e5
sI1989
V\u86db
sI1990
V\u695a
sI1991
V\u85dd
sI1992
V\u60df
sI1993
V\u7fe1
sI1994
V\u6491
sI1995
V\u7ae3
sI1996
V\u7d62
sI1997
V\u5766
sI1998
V\u53e9
sI1999
V\u8eeb
sI2000
V\u6b66
sI2001
V\u8c6c
sI2002
V\u88ef
sI2003
V\u6dbc
sI2004
V\u67f1
sI2005
V\u62f3
sI2006
V\u6572
sI2007
V\u96fb
sI2008
V\u8abe
sI2009
V\u55fd
sI2010
V\u547c
sI2011
V\u50ff
sI2012
V\u937e
sI2013
V\u6f01
sI2014
V\u8a03
sI2015
V\u6905
sI2016
V\u6309
sI2017
V\u818a
sI2018
V\u7d0d
sI2019
V\u9130
sI2020
V\u606c
sI2021
V\u9711
sI2022
V\u7690
sI2023
V\u5213
sI2024
V\u9592
sI2025
V\u9115
sI2026
V\u5094
sI2027
V\u8b19
sI2028
V\u8a98
sI2029
V\u651d
sI2030
V\u859b
sI2031
V\u839e
sI2032
V\u5ea0
sI2033
V\u7da2
sI2034
V\u7329
sI2035
V\u6e2b
sI2036
V\u8cac
sI2037
V\u571c
sI2038
V\u6731
sI2039
V\u739f
sI2040
V\u7fb6
sI2041
V\u7b39
sI2042
V\u9ab8
sI2043
V\u963b
sI2044
V\u6f41
sI2045
V\u8ec0
sI2046
V\u68c4
sI2047
V\u87c6
sI2048
V\u6349
sI2049
V\u62c8
sI2050
V\u61ca
sI2051
V\u6fdb
sI2052
V\u784f
sI2053
V\u65cc
sI2054
V\u9751
sI2055
V\u87f9
sI2056
V\u75d2
sI2057
V\u6c57
sI2058
V\u7678
sI2059
V\u865b
sI2060
V\u5751
sI2061
V\u6afb
sI2062
V\u9f61
sI2063
V\u5ee0
sI2064
V\u5de2
sI2065
V\u7965
sI2066
V\u58e4
sI2067
V\u7426
sI2068
V\u8d6d
sI2069
V\u587c
sI2070
V\u6771
sI2071
V\u66f0
sI2072
V\u6175
sI2073
V\u80f4
sI2074
V\u73ea
sI2075
V\u767b
sI2076
V\u4f7e
sI2077
V\u907f
sI2078
V\u73fe
sI2079
V\u8e81
sI2080
V\u6b83
sI2081
V\u822a
sI2082
V\u6885
sI2083
V\u6904
sI2084
V\u6587
sI2085
V\u6606
sI2086
V\u8212
sI2087
V\u6308
sI2088
V\u5f8b
sI2089
V\u66d6
sI2090
V\u798f
sI2091
V\u9a0e
sI2092
V\u79d5
sI2093
V\u5393
sI2094
V\u5114
sI2095
V\u4e16
sI2096
V\u7147
sI2097
V\u682e
sI2098
V\u649d
sI2099
V\u6f5b
sI2100
V\u821e
sI2101
V\u9f20
sI2102
V\u5ba3
sI2103
V\u60da
sI2104
V\u55a7
sI2105
V\u7626
sI2106
V\u52a9
sI2107
V\u9328
sI2108
V\u4f09
sI2109
V\u5632
sI2110
V\u60b5
sI2111
V\u6134
sI2112
V\u5db7
sI2113
V\u5e36
sI2114
V\u77bb
sI2115
V\u54bd
sI2116
V\u723e
sI2117
V\u4ec1
sI2118
V\u6c42
sI2119
V\u8944
sI2120
V\u62c9
sI2121
V\u9f77
sI2122
V\u804a
sI2123
V\u5d4c
sI2124
V\u808c
sI2125
V\u56d1
sI2126
V\u5750
sI2127
V\u50d5
sI2128
V\u5154
sI2129
V\u4e56
sI2130
V\u8b58
sI2131
V\u81df
sI2132
V\u625e
sI2133
V\u5ee1
sI2134
V\u6a3a
sI2135
V\u72e9
sI2136
V\u7368
sI2137
V\u8feb
sI2138
V\u8ced
sI2139
V\u6d6c
sI2140
V\u6289
sI2141
V\u8a6e
sI2142
V\u6770
sI2143
V\u5df7
sI2144
V\u7af9
sI2145
V\u5b78
sI2146
V\u97fb
sI2147
V\u54fd
sI2148
V\u557c
sI2149
V\u714c
sI2150
V\u4e01
sI2151
V\u8cc1
sI2152
V\u8c82
sI2153
V\u8805
sI2154
V\u6388
sI2155
V\u5f0b
sI2156
V\u6396
sI2157
V\u5c0d
sI2158
V\u590f
sI2159
V\u7015
sI2160
V\u7194
sI2161
V\u6d17
sI2162
V\u6e96
sI2163
V\u6a19
sI2164
V\u6b98
sI2165
V\u671b
sI2166
V\u62ee
sI2167
V\u659c
sI2168
V\u611f
sI2169
V\u7e21
sI2170
V\u5fa0
sI2171
V\u9825
sI2172
V\u5229
sI2173
V\u6f2b
sI2174
V\u90aa
sI2175
V\u6631
sI2176
V\u67b0
sI2177
V\u84b2
sI2178
V\u6035
sI2179
V\u5eb6
sI2180
V\u7bb8
sI2181
V\u78ba
sI2182
V\u543d
sI2183
V\u95bc
sI2184
V\u52be
sI2185
V\u7cef
sI2186
V\u6fc0
sI2187
V\u8cc2
sI2188
V\u66c6
sI2189
V\u6249
sI2190
V\u9f4b
sI2191
V\u5c4d
sI2192
V\u594f
sI2193
V\u5292
sI2194
V\u5353
sI2195
V\u7c6c
sI2196
V\u5055
sI2197
V\u71d4
sI2198
V\u4ed6
sI2199
V\u6a59
sI2200
V\u6bd8
sI2201
V\u68da
sI2202
V\u85dc
sI2203
V\u7e61
sI2204
V\u5fe0
sI2205
V\u5b63
sI2206
V\u9865
sI2207
V\u79e4
sI2208
V\u7269
sI2209
V\u53e8
sI2210
V\u9d5e
sI2211
V\u8dec
sI2212
V\u696f
sI2213
V\u8aee
sI2214
V\u7553
sI2215
V\u64f2
sI2216
V\u81f4
sI2217
V\u5ef6
sI2218
V\u7a79
sI2219
V\u5bf8
sI2220
V\u58fa
sI2221
V\u547d
sI2222
V\u75fc
sI2223
V\u52fe
sI2224
V\u9000
sI2225
V\u7483
sI2226
V\u9785
sI2227
V\u9d89
sI2228
V\u5c08
sI2229
V\u808b
sI2230
V\u5f0a
sI2231
V\u8b1a
sI2232
V\u820c
sI2233
V\u70ac
sI2234
V\u8810
sI2235
V\u6c93
sI2236
V\u4e14
sI2237
V\u5599
sI2238
V\u5f85
sI2239
V\u7a1c
sI2240
V\u5dd6
sI2241
V\u6020
sI2242
V\u5a5a
sI2243
V\u70ab
sI2244
V\u8f2a
sI2245
V\u53ad
sI2246
V\u722c
sI2247
V\u552e
sI2248
V\u79b1
sI2249
V\u5589
sI2250
V\u5cb3
sI2251
V\u5fb5
sI2252
V\u700b
sI2253
V\u65b9
sI2254
V\u8438
sI2255
V\u673a
sI2256
V\u6d3e
sI2257
V\u71c1
sI2258
V\u9644
sI2259
V\u5c48
sI2260
V\u60cb
sI2261
V\u9f4a
sI2262
V\u654e
sI2263
V\u6850
sI2264
V\u8cd3
sI2265
V\u6fd5
sI2266
V\u7e8f
sI2267
V\u72d7
sI2268
V\u75d9
sI2269
V\u9ae5
sI2270
V\u98db
sI2271
V\u5edf
sI2272
V\u7d5e
sI2273
V\u8ae7
sI2274
V\u6c68
sI2275
V\u514e
sI2276
V\u73ed
sI2277
V\u7feb
sI2278
V\u98bc
sI2279
V\u99f1
sI2280
V\u9cf3
sI2281
V\u5ff5
sI2282
V\u5e74
sI2283
V\u62f7
sI2284
V\u6176
sI2285
V\u6478
sI2286
V\u64b2
sI2287
V\u6eff
sI2288
V\u5080
sI2289
V\u7403
sI2290
V\u96db
sI2291
V\u7684
sI2292
V\u9d09
sI2293
V\u7f8a
sI2294
V\u660f
sI2295
V\u9f6c
sI2296
V\u6c13
sI2297
V\u8f15
sI2298
V\u4e94
sI2299
V\u5217
sI2300
V\u7498
sI2301
V\u609b
sI2302
V\u7e1f
sI2303
V\u60a0
sI2304
V\u63a2
sI2305
V\u5858
sI2306
V\u8ca8
sI2307
V\u502b
sI2308
V\u7bc6
sI2309
V\u72ac
sI2310
V\u562f
sI2311
V\u55ae
sI2312
V\u5931
sI2313
V\u5f35
sI2314
V\u9eb4
sI2315
V\u8237
sI2316
V\u61b6
sI2317
V\u6539
sI2318
V\u84b8
sI2319
V\u883b
sI2320
V\u87ba
sI2321
V\u6b3d
sI2322
V\u8abc
sI2323
V\u8dbe
sI2324
V\u5141
sI2325
V\u96c4
sI2326
V\u59c6
sI2327
V\u724b
sI2328
V\u514d
sI2329
V\u7fca
sI2330
V\u634d
sI2331
V\u664f
sI2332
V\u58f9
sI2333
V\u6bd2
sI2334
V\u4f55
sI2335
V\u4ed4
sI2336
V\u7559
sI2337
V\u74d8
sI2338
V\u5b5d
sI2339
V\u65fb
sI2340
V\u5e5f
sI2341
V\u5dde
sI2342
V\u60e0
sI2343
V\u8463
sI2344
V\u86e4
sI2345
V\u6d69
sI2346
V\u6ce8
sI2347
V\u706b
sI2348
V\u8fea
sI2349
V\u7c73
sI2350
V\u99d2
sI2351
V\u7f75
sI2352
V\u61f6
sI2353
V\u8b7d
sI2354
V\u9081
sI2355
V\u5100
sI2356
V\u9583
sI2357
V\u9685
sI2358
V\u7704
sI2359
V\u5b87
sI2360
V\u9806
sI2361
V\u7c89
sI2362
V\u5bc4
sI2363
V\u63d6
sI2364
V\u828d
sI2365
V\u678f
sI2366
V\u840e
sI2367
V\u8910
sI2368
V\u6d93
sI2369
V\u4e95
sI2370
V\u6f14
sI2371
V\u7397
sI2372
V\u5016
sI2373
V\u7518
sI2374
V\u7c1e
sI2375
V\u80a1
sI2376
V\u91b1
sI2377
V\u95d5
sI2378
V\u8ca9
sI2379
V\u91ab
sI2380
V\u8e2a
sI2381
V\u742e
sI2382
V\u98b1
sI2383
V\u5009
sI2384
V\u9eb5
sI2385
V\u8036
sI2386
V\u69bb
sI2387
V\u4fbf
sI2388
V\u5634
sI2389
V\u90c1
sI2390
V\u4f6f
sI2391
V\u96c5
sI2392
V\u9744
sI2393
V\u7bc7
sI2394
V\u9846
sI2395
V\u61cb
sI2396
V\u5be4
sI2397
V\u62cd
sI2398
V\u67cf
sI2399
V\u7f8c
sI2400
V\u516a
sI2401
V\u4ed5
sI2402
V\u6f54
sI2403
V\u53d7
sI2404
V\u60b8
sI2405
V\u99db
sI2406
V\u7add
sI2407
V\u7fdf
sI2408
V\u60e1
sI2409
V\u65e3
sI2410
V\u7f3a
sI2411
V\u8764
sI2412
V\u778b
sI2413
V\u7be6
sI2414
V\u77ef
sI2415
V\u98f1
sI2416
V\u5df3
sI2417
V\u63f7
sI2418
V\u8076
sI2419
V\u6578
sI2420
V\u69fb
sI2421
V\u667a
sI2422
V\u5761
sI2423
V\u9001
sI2424
V\u99c1
sI2425
V\u6840
sI2426
V\u5c09
sI2427
V\u85e9
sI2428
V\u5e8a
sI2429
V\u820d
sI2430
V\u638c
sI2431
V\u5827
sI2432
V\u6f2a
sI2433
V\u8d13
sI2434
V\u4e15
sI2435
V\u6f94
sI2436
V\u5317
sI2437
V\u6998
sI2438
V\u9419
sI2439
V\u7fc5
sI2440
V\u5b9c
sI2441
V\u5f1f
sI2442
V\u5e44
sI2443
V\u6021
sI2444
V\u81a0
sI2445
V\u8523
sI2446
V\u6625
sI2447
V\u8da8
sI2448
V\u6eaa
sI2449
V\u722d
sI2450
V\u93ac
sI2451
V\u7dde
sI2452
V\u5831
sI2453
V\u80b4
sI2454
V\u7d33
sI2455
V\u60b6
sI2456
V\u893b
sI2457
V\u6a3d
sI2458
V\u6bbc
sI2459
V\u8f3f
sI2460
V\u5cf4
sI2461
V\u9041
sI2462
V\u91c0
sI2463
V\u72c2
sI2464
V\u5da0
sI2465
V\u614b
sI2466
V\u5eca
sI2467
V\u624d
sI2468
V\u83cc
sI2469
V\u674f
sI2470
V\u6851
sI2471
V\u69d0
sI2472
V\u4ea2
sI2473
V\u8e55
sI2474
V\u8fd4
sI2475
V\u5357
sI2476
V\u50d6
sI2477
V\u7459
sI2478
V\u75d8
sI2479
V\u56da
sI2480
V\u7f5f
sI2481
V\u7cde
sI2482
V\u840d
sI2483
V\u6563
sI2484
V\u85fa
sI2485
V\u6de8
sI2486
V\u516b
sI2487
V\u53ec
sI2488
V\u54ee
sI2489
V\u9871
sI2490
V\u7d73
sI2491
V\u9e75
sI2492
V\u8377
sI2493
V\u60f6
sI2494
V\u66fa
sI2495
V\u4f7f
sI2496
V\u5200
sI2497
V\u5404
sI2498
V\u7887
sI2499
V\u6ea5
sI2500
V\u6e2d
sI2501
V\u7d0a
sI2502
V\u800c
sI2503
V\u8a10
sI2504
V\u6912
sI2505
V\u6d95
sI2506
V\u5316
sI2507
V\u6106
sI2508
V\u5a9b
sI2509
V\u751a
sI2510
V\u7c9f
sI2511
V\u5504
sI2512
V\u63a1
sI2513
V\u65a5
sI2514
V\u68a7
sI2515
V\u85b0
sI2516
V\u52ab
sI2517
V\u6d2a
sI2518
V\u502c
sI2519
V\u54af
sI2520
V\u7bb1
sI2521
V\u9a30
sI2522
V\u7db5
sI2523
V\u8336
sI2524
V\u6abb
sI2525
V\u89bd
sI2526
V\u683c
sI2527
V\u8cbf
sI2528
V\u8f3e
sI2529
V\u7e1e
sI2530
V\u7240
sI2531
V\u76c3
sI2532
V\u75c5
sI2533
V\u9444
sI2534
V\u58c7
sI2535
V\u7b46
sI2536
V\u5fc9
sI2537
V\u5bc7
sI2538
V\u7a92
sI2539
V\u6ce3
sI2540
V\u674e
sI2541
V\u8a50
sI2542
V\u6ed3
sI2543
V\u958f
sI2544
V\u7658
sI2545
V\u99dd
sI2546
V\u7624
sI2547
V\u7cdf
sI2548
V\u63e1
sI2549
V\u6162
sI2550
V\u65e5
sI2551
V\u68e7
sI2552
V\u8b66
sI2553
V\u6d6a
sI2554
V\u71ed
sI2555
V\u54ef
sI2556
V\u7a70
sI2557
V\u5ef3
sI2558
V\u7812
sI2559
V\u733f
sI2560
V\u67f9
sI2561
V\u4f01
sI2562
V\u69fd
sI2563
V\u701f
sI2564
V\u5d14
sI2565
V\u9280
sI2566
V\u5484
sI2567
V\u8216
sI2568
V\u610d
sI2569
V\u608c
sI2570
V\u640f
sI2571
V\u6a90
sI2572
V\u9017
sI2573
V\u9396
sI2574
V\u9698
sI2575
V\u5a1b
sI2576
V\u559a
sI2577
V\u589c
sI2578
V\u5f9e
sI2579
V\u64a4
sI2580
V\u8070
sI2581
V\u8f29
sI2582
V\u4ea8
sI2583
V\u912d
sI2584
V\u50ac
sI2585
V\u742f
sI2586
V\u9b31
sI2587
V\u5e33
sI2588
V\u7d35
sI2589
V\u61c8
sI2590
V\u86b8
sI2591
V\u8a3b
sI2592
V\u85ba
sI2593
V\u693d
sI2594
V\u8c3f
sI2595
V\u5341
sI2596
V\u72c0
sI2597
V\u54c4
sI2598
V\u5bc6
sI2599
V\u624b
sI2600
V\u7dca
sI2601
V\u80cc
sI2602
V\u7fcc
sI2603
V\u5df9
sI2604
V\u89d2
sI2605
V\u9686
sI2606
V\u7b4f
sI2607
V\u53d6
sI2608
V\u9a5b
sI2609
V\u55da
sI2610
V\u795d
sI2611
V\u98dc
sI2612
V\u5451
sI2613
V\u62fe
sI2614
V\u4f69
sI2615
V\u6dea
sI2616
V\u516d
sI2617
V\u8153
sI2618
V\u746f
sI2619
V\u77ee
sI2620
V\u5b71
sI2621
V\u5e73
sI2622
V\u7664
sI2623
V\u9cf4
sI2624
V\u8077
sI2625
V\u63f6
sI2626
V\u66f8
sI2627
V\u65fa
sI2628
V\u6ffe
sI2629
V\u5002
sI2630
V\u7504
sI2631
V\u70ad
sI2632
V\u5c0a
sI2633
V\u8b96
sI2634
V\u660e
sI2635
V\u85af
sI2636
V\u5197
sI2637
V\u9699
sI2638
V\u5718
sI2639
V\u5b9b
sI2640
V\u7949
sI2641
V\u591c
sI2642
V\u9e1e
sI2643
V\u64a5
sI2644
V\u69a7
sI2645
V\u7747
sI2646
V\u50ad
sI2647
V\u5854
sI2648
V\u962e
sI2649
V\u5b30
sI2650
V\u7832
sI2651
V\u6236
sI2652
V\u643a
sI2653
V\u6e3e
sI2654
V\u52c1
sI2655
V\u5340
sI2656
V\u57c3
sI2657
V\u9042
sI2658
V\u5544
sI2659
V\u5a46
sI2660
V\u5ec9
sI2661
V\u5f48
sI2662
V\u5236
sI2663
V\u614c
sI2664
V\u65cf
sI2665
V\u864e
sI2666
V\u6b50
sI2667
V\u8852
sI2668
V\u6cd5
sI2669
V\u5256
sI2670
V\u96d9
sI2671
V\u745a
sI2672
V\u7e5e
sI2673
V\u5806
sI2674
V\u6062
sI2675
V\u64e5
sI2676
V\u8a66
sI2677
V\u525b
sI2678
V\u53eb
sI2679
V\u8c6a
sI2680
V\u50ed
sI2681
V\u516c
sI2682
V\u6bc6
sI2683
V\u61f7
sI2684
V\u6276
sI2685
V\u66f9
sI2686
V\u8778
sI2687
V\u88fd
sI2688
V\u4e7e
sI2689
V\u5201
sI2690
V\u5703
sI2691
V\u9082
sI2692
V\u5584
sI2693
V\u6070
sI2694
V\u7f88
sI2695
V\u5996
sI2696
V\u668e
sI2697
V\u6a11
sI2698
V\u8b90
sI2699
V\u8f13
sI2700
V\u8892
sI2701
V\u9798
sI2702
V\u7b1b
sI2703
V\u9d1f
sI2704
V\u63a0
sI2705
V\u80a2
sI2706
V\u65a4
sI2707
V\u8aa6
sI2708
V\u8fa8
sI2709
V\u932b
sI2710
V\u8caa
sI2711
V\u502d
sI2712
V\u91ac
sI2713
V\u552f
sI2714
V\u76ae
sI2715
V\u7a31
sI2716
V\u5bb0
sI2717
V\u96f2
sI2718
V\u9db4
sI2719
V\u6137
sI2720
V\u67b8
sI2721
V\u683d
sI2722
V\u83f4
sI2723
V\u73c0
sI2724
V\u50c2
sI2725
V\u7f77
sI2726
V\u5947
sI2727
V\u99b9
sI2728
V\u7cca
sI2729
V\u604d
sI2730
V\u654f
sI2731
V\u514c
sI2732
V\u7a36
sI2733
V\u4f53
sI2734
V\u68d2
sI2735
V\u7099
sI2736
V\u85cf
sI2737
V\u4fe0
sI2738
V\u74da
sI2739
V\u785d
sI2740
V\u59dc
sI2741
V\u9ede
sI2742
V\u85e4
sI2743
V\u8ae6
sI2744
V\u767d
sI2745
V\u9c0d
sI2746
V\u8cea
sI2747
V\u906d
sI2748
V\u756f
sI2749
V\u76ee
sI2750
V\u5bf0
sI2751
V\u7df4
sI2752
V\u6177
sI2753
V\u8679
sI2754
V\u6b7b
sI2755
V\u64fa
sI2756
V\u6d7f
sI2757
V\u8efe
sI2758
V\u5e87
sI2759
V\u9808
sI2760
V\u7256
sI2761
V\u878d
sI2762
V\u660c
sI2763
V\u610e
sI2764
V\u6c10
sI2765
V\u6893
sI2766
V\u84f4
sI2767
V\u7199
sI2768
V\u931a
sI2769
V\u9949
sI2770
V\u7a9f
sI2771
V\u991e
sI2772
V\u65a1
sI2773
V\u60a3
sI2774
V\u63a5
sI2775
V\u54ab
sI2776
V\u6c6a
sI2777
V\u77ad
sI2778
V\u61e3
sI2779
V\u72af
sI2780
V\u712e
sI2781
V\u7db1
sI2782
V\u58b3
sI2783
V\u73b2
sI2784
V\u5bb5
sI2785
V\u6536
sI2786
V\u8cbb
sI2787
V\u633a
sI2788
V\u6e3c
sI2789
V\u8abf
sI2790
V\u96b4
sI2791
V\u7440
sI2792
V\u5742
sI2793
V\u7a37
sI2794
V\u7d46
sI2795
V\u59c9
sI2796
V\u84cb
sI2797
V\u8c7a
sI2798
V\u664c
sI2799
V\u62cf
sI2800
V\u814e
sI2801
V\u6dd1
sI2802
V\u8c50
sI2803
V\u8a54
sI2804
V\u5556
sI2805
V\u7058
sI2806
V\u535a
sI2807
V\u59fb
sI2808
V\u7adf
sI2809
V\u795e
sI2810
V\u6460
sI2811
V\u6d66
sI2812
V\u8868
sI2813
V\u6b6a
sI2814
V\u77ed
sI2815
V\u766c
sI2816
V\u716e
sI2817
V\u5df1
sI2818
V\u7f72
sI2819
V\u5bf5
sI2820
V\u7a74
sI2821
V\u8cfb
sI2822
V\u637a
sI2823
V\u8ffd
sI2824
V\u8adb
sI2825
V\u8014
sI2826
V\u7501
sI2827
V\u5480
sI2828
V\u9003
sI2829
V\u5782
sI2830
V\u5305
sI2831
V\u9909
sI2832
V\u90ed
sI2833
V\u670d
sI2834
V\u916c
sI2835
V\u6d11
sI2836
V\u6c90
sI2837
V\u6813
sI2838
V\u7192
sI2839
V\u5617
sI2840
V\u9119
sI2841
V\u5098
sI2842
V\u539a
sI2843
V\u8768
sI2844
V\u5e9c
sI2845
V\u7a1f
sI2846
V\u4ec4
sI2847
V\u8521
sI2848
V\u87a2
sI2849
V\u7247
sI2850
V\u759d
sI2851
V\u542b
sI2852
V\u572d
sI2853
V\u91ae
sI2854
V\u8eac
sI2855
V\u7fb2
sI2856
V\u9438
sI2857
V\u8139
sI2858
V\u5fe1
sI2859
V\u4f3d
sI2860
V\u8d74
sI2861
V\u54c0
sI2862
V\u5043
sI2863
V\u7345
sI2864
V\u72c4
sI2865
V\u5e47
sI2866
V\u5949
sI2867
V\u9b4d
sI2868
V\u51dc
sI2869
V\u8276
sI2870
V\u9be4
sI2871
V\u56f9
sI2872
V\u8853
sI2873
V\u7e6d
sI2874
V\u95d6
sI2875
V\u7159
sI2876
V\u99a5
sI2877
V\u5c5b
sI2878
V\u5f5d
sI2879
V\u9edc
sI2880
V\u9a5f
sI2881
V\u58a9
sI2882
V\u6063
sI2883
V\u6e67
sI2884
V\u58fd
sI2885
V\u976d
sI2886
V\u526f
sI2887
V\u71ee
sI2888
V\u7d71
sI2889
V\u5cf0
sI2890
V\u7a46
sI2891
V\u5b75
sI2892
V\u85f6
sI2893
V\u8179
sI2894
V\u80f8
sI2895
V\u6f7d
sI2896
V\u8eab
sI2897
V\u92e4
sI2898
V\u9285
sI2899
V\u9304
sI2900
V\u9908
sI2901
V\u8703
sI2902
V\u741b
sI2903
V\u932a
sI2904
V\u8993
sI2905
V\u8a95
sI2906
V\u8b14
sI2907
V\u5099
sI2908
V\u9e9d
sI2909
V\u9b9f
sI2910
V\u581e
sI2911
V\u81a3
sI2912
V\u4fda
sI2913
V\u82a5
sI2914
V\u75ab
sI2915
V\u8a2a
sI2916
V\u6ac2
sI2917
V\u902e
sI2918
V\u7cb1
sI2919
V\u7d30
sI2920
V\u99b3
sI2921
V\u665f
sI2922
V\u6f88
sI2923
V\u4f3c
sI2924
V\u6bbf
sI2925
V\u54c1
sI2926
V\u71c3
sI2927
V\u7642
sI2928
V\u52c5
sI2929
V\u7344
sI2930
V\u5c46
sI2931
V\u66db
sI2932
V\u7948
sI2933
V\u65cb
sI2934
V\u7f36
sI2935
V\u874c
sI2936
V\u63cf
sI2937
V\u8cd1
sI2938
V\u77d7
sI2939
V\u70d9
sI2940
V\u5bdf
sI2941
V\u985e
sI2942
V\u64e1
sI2943
V\u81e3
sI2944
V\u6822
sI2945
V\u82e5
sI2946
V\u75bd
sI2947
V\u5f13
sI2948
V\u53ef
sI2949
V\u906e
sI2950
V\u7d70
sI2951
V\u5e72
sI2952
V\u5af5
sI2953
V\u9b74
sI2954
V\u8476
sI2955
V\u60f9
sI2956
V\u8178
sI2957
V\u6dfb
sI2958
V\u6f7c
sI2959
V\u887e
sI2960
V\u5401
sI2961
V\u9580
sI2962
V\u7384
sI2963
V\u5f07
sI2964
V\u9809
sI2965
V\u6c11
sI2966
V\u8913
sI2967
V\u4e92
sI2968
V\u76e3
sI2969
V\u5019
sI2970
V\u7d1b
sI2971
V\u5e1d
sI2972
V\u9f9c
sI2973
V\u589e
sI2974
V\u6fc2
sI2975
V\u8123
sI2976
V\u66a2
sI2977
V\u752b
sI2978
V\u8aaa
sI2979
V\u77ac
sI2980
V\u932f
sI2981
V\u70ae
sI2982
V\u5c31
sI2983
V\u73c9
sI2984
V\u5bb4
sI2985
V\u6d3b
sI2986
V\u4ecb
sI2987
V\u7441
sI2988
V\u5143
sI2989
V\u76c2
sI2990
V\u9245
sI2991
V\u896a
sI2992
V\u7aca
sI2993
V\u634f
sI2994
V\u80ce
sI2995
V\u6953
sI2996
V\u8ed2
sI2997
V\u8a55
sI2998
V\u6bd4
sI2999
V\u9059
sI3000
V\u91d8
sI3001
V\u5b5f
sI3002
V\u58de
sI3003
V\u8461
sI3004
V\u65e0
sI3005
V\u6163
sI3006
V\u8ce6
sI3007
V\u69e8
sI3008
V\u756b
sI3009
V\u536f
sI3010
V\u92fc
sI3011
V\u5c71
sI3012
V\u9df0
sI3013
V\u5973
sI3014
V\u6777
sI3015
V\u7fa8
sI3016
V\u61f8
sI3017
V\u9766
sI3018
V\u75fe
sI3019
V\u832b
sI3020
V\u6b7f
sI3021
V\u7600
sI3022
V\u9283
sI3023
V\u5b5a
sI3024
V\u5b89
sI3025
V\u9a08
sI3026
V\u990a
sI3027
V\u840c
sI3028
V\u51ac
sI3029
V\u4f91
sI3030
V\u8e10
sI3031
V\u8a93
sI3032
V\u8a02
sI3033
V\u852f
sI3034
V\u5716
sI3035
V\u711a
sI3036
V\u76db
sI3037
V\u589f
sI3038
V\u7b1e
sI3039
V\u6620
sI3040
V\u595a
sI3041
V\u8ca7
sI3042
V\u8f26
sI3043
V\u7006
sI3044
V\u95ad
sI3045
V\u90af
sI3046
V\u932e
sI3047
V\u7834
sI3048
V\u535e
sI3049
V\u6b3e
sI3050
V\u9640
sI3051
V\u52c3
sI3052
V\u860a
sI3053
V\u5830
sI3054
V\u7bc9
sI3055
V\u6a8d
sI3056
V\u86cb
sI3057
V\u994a
sI3058
V\u85cd
sI3059
V\u8fd1
sI3060
V\u6ad3
sI3061
V\u90de
sI3062
V\u9756
sI3063
V\u71c9
sI3064
V\u7422
sI3065
V\u5edb
sI3066
V\u5ddd
sI3067
V\u98df
sI3068
V\u9091
sI3069
V\u6562
sI3070
V\u81e5
sI3071
V\u6064
sI3072
V\u9716
sI3073
V\u7766
sI3074
V\u770b
sI3075
V\u936e
sI3076
V\u5ff1
sI3077
V\u7e70
sI3078
V\u7d72
sI3079
V\u9874
sI3080
V\u8776
sI3081
V\u83f9
sI3082
V\u4efb
sI3083
V\u817a
sI3084
V\u7701
sI3085
V\u5203
sI3086
V\u916a
sI3087
V\u9084
sI3088
V\u5c07
sI3089
V\u5b09
sI3090
V\u7a88
sI3091
V\u860b
sI3092
V\u598a
sI3093
V\u600f
sI3094
V\u838e
sI3095
V\u4f11
sI3096
V\u6e90
sI3097
V\u8a13
sI3098
V\u98ef
sI3099
V\u5319
sI3100
V\u9298
sI3101
V\u7e1b
sI3102
V\u9149
sI3103
V\u60a4
sI3104
V\u8fa6
sI3105
V\u7f9e
sI3106
V\u8aa8
sI3107
V\u89aa
sI3108
V\u54ac
sI3109
V\u5f31
sI3110
V\u9eb0
sI3111
V\u7db2
sI3112
V\u67b6
sI3113
V\u6339
sI3114
V\u82b8
sI3115
V\u4e3b
sI3116
V\u81ba
sI3117
V\u6d3d
sI3118
V\u8cbc
sI3119
V\u96c0
sI3120
V\u6cca
sI3121
V\u5145
sI3122
V\u9c47
sI3123
V\u7b49
sI3124
V\u7ac8
sI3125
V\u664b
sI3126
V\u59ca
sI3127
V\u654d
sI3128
V\u701a
sI3129
V\u51cc
sI3130
V\u4f51
sI3131
V\u6955
sI3132
V\u88d4
sI3133
V\u7457
sI3134
V\u52d8
sI3135
V\u874e
sI3136
V\u9d5d
sI3137
V\u7cdc
sI3138
V\u5bde
sI3139
V\u66e0
sI3140
V\u797a
sI3141
V\u8165
sI3142
V\u80e4
sI3143
V\u8fe6
sI3144
V\u69ea
sI3145
V\u947c
sI3146
V\u5f71
sI3147
V\u5df2
sI3148
V\u98f4
sI3149
V\u8477
sI3150
V\u67f6
sI3151
V\u97ac
sI3152
V\u61fa
sI3153
V\u8cfc
sI3154
V\u887f
sI3155
V\u7681
sI3156
V\u9700
sI3157
V\u5085
sI3158
V\u5104
sI3159
V\u5d87
sI3160
V\u5e06
sI3161
V\u6b16
sI3162
V\u678b
sI3163
V\u580a
sI3164
V\u818f
sI3165
V\u620e
sI3166
V\u4e91
sI3167
V\u4f10
sI3168
V\u8b93
sI3169
V\u5d82
sI3170
V\u4faf
sI3171
V\u9318
sI3172
V\u901a
sI3173
V\u6422
sI3174
V\u80a5
sI3175
V\u6e26
sI3176
V\u8b28
sI3177
V\u682a
sI3178
V\u91af
sI3179
V\u522e
sI3180
V\u8309
sI3181
V\u5bb3
sI3182
V\u9c32
sI3183
V\u65b7
sI3184
V\u6636
sI3185
V\u62b9
sI3186
V\u8338
sI3187
V\u8734
sI3188
V\u96c1
sI3189
V\u7740
sI3190
V\u53c3
sI3191
V\u718a
sI3192
V\u50c5
sI3193
V\u5144
sI3194
V\u7dc7
sI3195
V\u754f
sI3196
V\u5d0d
sI3197
V\u87cb
sI3198
V\u584a
sI3199
V\u64cd
sI3200
V\u81cf
sI3201
V\u6ed1
sI3202
V\u4f50
sI3203
V\u88d5
sI3204
V\u6954
sI3205
V\u7656
sI3206
V\u52d9
sI3207
V\u505a
sI3208
V\u79df
sI3209
V\u6760
sI3210
V\u80e5
sI3211
V\u82bd
sI3212
V\u54ed
sI3213
V\u7f70
sI3214
V\u5974
sI3215
V\u6676
sI3216
V\u971e
sI3217
V\u88a8
sI3218
V\u5ebe
sI3219
V\u7b51
sI3220
V\u69ff
sI3221
V\u78c1
sI3222
V\u9005
sI3223
V\u7184
sI3224
V\u5d07
sI3225
V\u8c41
sI3226
V\u5b88
sI3227
V\u670b
sI3228
V\u640d
sI3229
V\u658c
sI3230
V\u610f
sI3231
V\u828e
sI3232
V\u4e11
sI3233
V\u7280
sI3234
V\u6c92
sI3235
V\u8815
sI3236
V\u6994
sI3237
V\u5398
sI3238
V\u5f1b
sI3239
V\u7d9c
sI3240
V\u8322
sI3241
V\u6025
sI3242
V\u61a4
sI3243
V\u4ea6
sI3244
V\u55ac
sI3245
V\u7e31
sI3246
V\u7b33
sI3247
V\u7cb2
sI3248
V\u5835
sI3249
V\u501f
sI3250
V\u6537
sI3251
V\u8239
sI3252
V\u8f3b
sI3253
V\u80ba
sI3254
V\u59cb
sI3255
V\u693f
sI3256
V\u5df4
sI3257
V\u7262
sI3258
V\u5343
sI3259
V\u9177
sI3260
V\u5a49
sI3261
V\u7bc8
sI3262
V\u78ca
sI3263
V\u8a23
sI3264
V\u728d
sI3265
V\u6cb8
sI3266
V\u76d6
sI3267
V\u7259
sI3268
V\u5f5b
sI3269
V\u50da
sI3270
V\u64e2
sI3271
V\u6065
sI3272
V\u8d67
sI3273
V\u8a69
sI3274
V\u5e71
sI3275
V\u7ff0
sI3276
V\u7cf2
sI3277
V\u5875
sI3278
V\u6577
sI3279
V\u6279
sI3280
V\u6042
sI3281
V\u60fa
sI3282
V\u6c7d
sI3283
V\u7e2b
sI3284
V\u897f
sI3285
V\u8afe
sI3286
V\u7981
sI3287
V\u5800
sI3288
V\u7f85
sI3289
V\u5287
sI3290
V\u5106
sI3291
V\u9589
sI3292
V\u5408
sI3293
V\u888b
sI3294
V\u8a0c
sI3295
V\u608d
sI3296
V\u6191
sI3297
V\u8010
sI3298
V\u6493
sI3299
V\u6795
sI3300
V\u6614
sI3301
V\u5916
sI3302
V\u5bae
sI3303
V\u89a1
sI3304
V\u7322
sI3305
V\u82f4
sI3306
V\u6e24
sI3307
V\u7b54
sI3308
V\u85a9
sI3309
V\u672a
sI3310
V\u7bad
sI3311
V\u535c
sI3312
V\u71b1
sI3313
V\u54b3
sI3314
V\u7634
sI3315
V\u8936
sI3316
V\u6c38
sI3317
V\u4f3a
sI3318
V\u83bd
sI3319
V\u86bf
sI3320
V\u653e
sI3321
V\u79c1
sI3322
V\u9b42
sI3323
V\u5fc5
sI3324
V\u6c37
sI3325
V\u52c7
sI3326
V\u5146
sI3327
V\u5448
sI3328
V\u68cb
sI3329
V\u574a
sI3330
V\u6bcd
sI3331
V\u6050
sI3332
V\u8352
sI3333
V\u8654
sI3334
V\u7956
sI3335
V\u9266
sI3336
V\u93dd
sI3337
V\u763b
sI3338
V\u76df
sI3339
V\u555e
sI3340
V\u8ce3
sI3341
V\u6b62
sI3342
V\u8fe5
sI3343
V\u8e64
sI3344
V\u82e7
sI3345
V\u8166
sI3346
V\u65e9
sI3347
V\u58eb
sI3348
V\u876a
sI3349
V\u9eef
sI3350
V\u51f1
sI3351
V\u7070
sI3352
V\u7372
sI3353
V\u57f5
sI3354
V\u5674
sI3355
V\u8af7
sI3356
V\u6df9
sI3357
V\u68a8
sI3358
V\u60fb
sI3359
V\u83fd
sI3360
V\u9598
sI3361
V\u66ff
sI3362
V\u7901
sI3363
V\u5b82
sI3364
V\u5e84
sI3365
V\u5207
sI3366
V\u4ec0
sI3367
V\u79b3
sI3368
V\u8a8c
sI3369
V\u8e0f
sI3370
V\u6d8e
sI3371
V\u9011
sI3372
V\u6392
sI3373
V\u6715
sI3374
V\u4fef
sI3375
V\u7a17
sI3376
V\u9996
sI3377
V\u7d19
sI3378
V\u7c98
sI3379
V\u701b
sI3380
V\u5c3b
sI3381
V\u731d
sI3382
V\u929c
sI3383
V\u559e
sI3384
V\u80f1
sI3385
V\u6c23
sI3386
V\u4ea4
sI3387
V\u8170
sI3388
V\u7aac
sI3389
V\u8349
sI3390
V\u5433
sI3391
V\u5272
sI3392
V\u56b4
sI3393
V\u8cb8
sI3394
V\u633d
sI3395
V\u62bc
sI3396
V\u863f
sI3397
V\u70f9
sI3398
V\u7941
sI3399
V\u7c43
sI3400
V\u5bc2
sI3401
V\u5247
sI3402
V\u51c6
sI3403
V\u54c8
sI3404
V\u4e4f
sI3405
V\u8151
sI3406
V\u8755
sI3407
V\u86d4
sI3408
V\u9a57
sI3409
V\u965f
sI3410
V\u6961
sI3411
V\u68e0
sI3412
V\u4ee4
sI3413
V\u61e6
sI3414
V\u8569
sI3415
V\u986b
sI3416
V\u5dee
sI3417
V\u5171
sI3418
V\u5473
sI3419
V\u53f2
sI3420
V\u76f4
sI3421
V\u6d79
sI3422
V\u8155
sI3423
V\u747e
sI3424
V\u7881
sI3425
V\u7d83
sI3426
V\u5b2a
sI3427
V\u5f04
sI3428
V\u7387
sI3429
V\u9006
sI3430
V\u97ad
sI3431
V\u898b
sI3432
V\u8a8d
sI3433
V\u6b0c
sI3434
V\u6212
sI3435
V\u6714
sI3436
V\u5b97
sI3437
V\u7d18
sI3438
V\u9e1a
sI3439
V\u731c
sI3440
V\u8da3
sI3441
V\u4ea5
sI3442
V\u63a7
sI3443
V\u8026
sI3444
V\u655d
sI3445
V\u79ab
sI3446
V\u7b2c
sI3447
V\u90b1
sI3448
V\u7130
sI3449
V\u75b3
sI3450
V\u7232
sI3451
V\u6bb7
sI3452
V\u8836
sI3453
V\u6cb9
sI3454
V\u6d38
sI3455
V\u6e3a
sI3456
V\u62bd
sI3457
V\u643e
sI3458
V\u58c1
sI3459
V\u7940
sI3460
V\u9ee0
sI3461
V\u54c9
sI3462
V\u69cb
sI3463
V\u8acd
sI3464
V\u6b4c
sI3465
V\u8881
sI3466
V\u6c4e
sI3467
V\u60d1
sI3468
V\u8150
sI3469
V\u6f0f
sI3470
V\u9bd7
sI3471
V\u5cd9
sI3472
V\u52dd
sI3473
V\u6cbb
sI3474
V\u57df
sI3475
V\u745e
sI3476
V\u88e1
sI3477
V\u6960
sI3478
V\u8de3
sI3479
V\u6eab
sI3480
V\u4ee5
sI3481
V\u6f64
sI3482
V\u5fbd
sI3483
V\u7aed
sI3484
V\u7b6c
sI3485
V\u7272
sI3486
V\u9774
sI3487
V\u6876
sI3488
V\u6d78
sI3489
V\u593e
sI3490
V\u67ff
sI3491
V\u5770
sI3492
V\u5409
sI3493
V\u968a
sI3494
V\u4f0f
sI3495
V\u6190
sI3496
V\u8513
sI3497
V\u6292
sI3498
V\u786f
sI3499
V\u5c19
sI3500
V\u5e9a
sI3501
V\u521d
sI3502
V\u811b
sI3503
V\u571f
sI3504
V\u6821
sI3505
V\u5809
sI3506
V\u6aa2
sI3507
V\u6fa4
sI3508
V\u56f0
sI3509
V\u85a8
sI3510
V\u592b
sI3511
V\u86aa
sI3512
V\u7cae
sI3513
V\u9031
sI3514
V\u79c9
sI3515
V\u7533
sI3516
V\u6b37
sI3517
V\u68b6
sI3518
V\u9175
sI3519
V\u4eba
sI3520
V\u79c0
sI3521
V\u7d43
sI3522
V\u5ac2
sI3523
V\u5e45
sI3524
V\u5347
sI3525
V\u76ca
sI3526
V\u6bcc
sI3527
V\u4f4f
sI3528
V\u6553
sI3529
V\u62d2
sI3530
V\u8655
sI3531
V\u67d4
sI3532
V\u5b57
sI3533
V\u7dd8
sI3534
V\u5eda
sI3535
V\u525d
sI3536
V\u6fae
sI3537
V\u8861
sI3538
V\u6d63
sI3539
V\u6fe4
sI3540
V\u6367
sI3541
V\u6c50
sI3542
V\u6469
sI3543
V\u65e8
sI3544
V\u5bec
sI3545
V\u84fc
sI3546
V\u7023
sI3547
V\u51f0
sI3548
V\u9675
sI3549
V\u57f4
sI3550
V\u6b77
sI3551
V\u8c79
sI3552
V\u6df8
sI3553
V\u67ec
sI3554
V\u792b
sI3555
V\u677f
sI3556
V\u64fe
sI3557
V\u7a00
sI3558
V\u5c04
sI3559
V\u665b
sI3560
V\u4f0e
sI3561
V\u6210
sI3562
V\u7b8f
sI3563
V\u8f2f
sI3564
V\u7897
sI3565
V\u5b16
sI3566
V\u5f99
sI3567
V\u529b
sI3568
V\u7d1a
sI3569
V\u501c
sI3570
V\u749f
sI3571
V\u771e
sI3572
V\u7031
sI3573
V\u9f08
sI3574
V\u5587
sI3575
V\u6628
sI3576
V\u652a
sI3577
V\u99ad
sI3578
V\u782c
sI3579
V\u5230
sI3580
V\u9132
sI3581
V\u75b5
sI3582
V\u7434
sI3583
V\u4e38
sI3584
V\u82bb
sI3585
V\u81bd
sI3586
V\u803c
sI3587
V\u84bf
sI3588
V\u7bc1
sI3589
V\u7a40
sI3590
V\u9ec3
sI3591
V\u8acb
sI3592
V\u69cd
sI3593
V\u884c
sI3594
V\u4f4e
sI3595
V\u76a4
sI3596
V\u65d5
sI3597
V\u7b56
sI3598
V\u5fd9
sI3599
V\u73e5
sI3600
V\u51dd
sI3601
V\u505c
sI3602
V\u9f90
sI3603
V\u975e
sI3604
V\u8a60
sI3605
V\u4ee3
sI3606
V\u6eba
sI3607
V\u67e9
sI3608
V\u6d85
sI3609
V\u8d66
sI3610
V\u79ed
sI3611
V\u786c
sI3612
V\u5cef
sI3613
V\u7f6e
sI3614
V\u53f1
sI3615
V\u9172
sI3616
V\u9474
sI3617
V\u8ff9
sI3618
V\u82fb
sI3619
V\u677e
sI3620
V\u5e03
sI3621
V\u5982
sI3622
V\u7d05
sI3623
V\u7386
sI3624
V\u7709
sI3625
V\u97ed
sI3626
V\u6a0b
sI3627
V\u558a
sI3628
V\u690d
sI3629
V\u6c0f
sI3630
V\u6f8e
sI3631
V\u6311
sI3632
V\u6613
sI3633
V\u8ac2
sI3634
V\u9817
sI3635
V\u7e45
sI3636
V\u721b
sI3637
V\u516e
sI3638
V\u6dcb
sI3639
V\u541f
sI3640
V\u779e
sI3641
V\u6b21
sI3642
V\u8aa0
sI3643
V\u6e23
sI3644
V\u6d25
sI3645
V\u6027
sI3646
V\u85aa
sI3647
V\u592d
sI3648
V\u5fae
sI3649
V\u6414
sI3650
V\u60bc
sI3651
V\u67be
sI3652
V\u9b41
sI3653
V\u807f
sI3654
V\u7e43
sI3655
V\u56ca
sI3656
V\u5047
sI3657
V\u76c8
sI3658
V\u6a4b
sI3659
V\u95ca
sI3660
V\u8fce
sI3661
V\u8351
sI3662
V\u62d0
sI3663
V\u64d4
sI3664
V\u5857
sI3665
V\u5078
sI3666
V\u5f59
sI3667
V\u9ed8
sI3668
V\u725b
sI3669
V\u7dda
sI3670
V\u7cfb
sI3671
V\u745f
sI3672
V\u6b61
sI3673
V\u8ce4
sI3674
V\u91d0
sI3675
V\u7a6b
sI3676
V\u85ea
sI3677
V\u796d
sI3678
V\u58ec
sI3679
V\u5c6f
sI3680
V\u5e7c
sI3681
V\u5371
sI3682
V\u9673
sI3683
V\u92d2
sI3684
V\u7575
sI3685
V\u8877
sI3686
V\u8ef8
sI3687
V\u6dfa
sI3688
V\u617d
sI3689
V\u7b9c
sI3690
V\u87fe
sI3691
V\u7a81
sI3692
V\u5802
sI3693
V\u7d04
sI3694
V\u9187
sI3695
V\u5206
sI3696
V\u5708
sI3697
V\u888d
sI3698
V\u6291
sI3699
V\u6012
sI3700
V\u5f18
sI3701
V\u939b
sI3702
V\u711c
sI3703
V\u761e
sI3704
V\u8aa1
sI3705
V\u8b20
sI3706
V\u8fa3
sI3707
V\u8822
sI3708
V\u56ae
sI3709
V\u61a7
sI3710
V\u9730
sI3711
V\u6728
sI3712
V\u642a
sI3713
V\u792c
sI3714
V\u9daf
sI3715
V\u7e2e
sI3716
V\u77b3
sI3717
V\u9032
sI3718
V\u74b5
sI3719
V\u8a36
sI3720
V\u4f38
sI3721
V\u60bd
sI3722
V\u613c
sI3723
V\u7708
sI3724
V\u5ac1
sI3725
V\u5b40
sI3726
V\u5fc3
sI3727
V\u6b8a
sI3728
V\u7d44
sI3729
V\u91c7
sI3730
V\u7246
sI3731
V\u96c9
sI3732
V\u9748
sI3733
V\u6bcb
sI3734
V\u544a
sI3735
V\u68cd
sI3736
V\u8dcf
sI3737
V\u4e4e
sI3738
V\u82d1
sI3739
V\u6350
sI3740
V\u67d3
sI3741
V\u6052
sI3742
V\u53db
sI3743
V\u618e
sI3744
V\u515c
sI3745
V\u55df
sI3746
V\u965e
sI3747
V\u8ae1
sI3748
V\u8862
sI3749
V\u6ce5
sI3750
V\u8d64
sI3751
V\u81e7
sI3752
V\u8266
sI3753
V\u74bd
sI3754
V\u5beb
sI3755
V\u98ed
sI3756
V\u596c
sI3757
V\u7def
sI3758
V\u86d9
sI3759
V\u5370
sI3760
V\u97f3
sI3761
V\u9072
sI3762
V\u6c7a
sI3763
V\u80fd
sI3764
V\u85ff
sI3765
V\u5a01
sI3766
V\u5f40
sI3767
V\u5609
sI3768
V\u5788
sI3769
V\u900d
sI3770
V\u880d
sI3771
V\u4e8e
sI3772
V\u6211
sI3773
V\u7119
sI3774
V\u8594
sI3775
V\u7098
sI3776
V\u5e19
sI3777
V\u5f98
sI3778
V\u731b
sI3779
V\u901d
sI3780
V\u919c
sI3781
V\u751f
sI3782
V\u569e
sI3783
V\u6a21
sI3784
V\u6f23
sI3785
V\u68a2
sI3786
V\u6127
sI3787
V\u75bc
sI3788
V\u982d
sI3789
V\u99ac
sI3790
V\u7d2f
sI3791
V\u93b0
sI3792
V\u50b2
sI3793
V\u9435
sI3794
V\u6a1f
sI3795
V\u4e39
sI3796
V\u6aa0
sI3797
V\u803d
sI3798
V\u653f
sI3799
V\u6eb1
sI3800
V\u5a41
sI3801
V\u7bc0
sI3802
V\u5c45
sI3803
V\u9dc4
sI3804
V\u5147
sI3805
V\u57c8
sI3806
V\u74ca
sI3807
V\u884d
sI3808
V\u5023
sI3809
V\u6ece
sI3810
V\u63d0
sI3811
V\u6753
sI3812
V\u57a2
sI3813
V\u939a
sI3814
V\u5957
sI3815
V\u5ad6
sI3816
V\u5fd8
sI3817
V\u935b
sI3818
V\u9a4e
sI3819
V\u705d
sI3820
V\u91dc
sI3821
V\u76de
sI3822
V\u6a61
sI3823
V\u6167
sI3824
V\u82e6
sI3825
V\u6669
sI3826
V\u527d
sI3827
V\u5b6b
sI3828
V\u59ec
sI3829
V\u53f0
sI3830
V\u5475
sI3831
V\u75f4
sI3832
V\u6977
sI3833
V\u98a8
sI3834
V\u622a
sI3835
V\u837b
sI3836
V\u807d
sI3837
V\u61fc
sI3838
V\u66fe
sI3839
V\u5883
sI3840
V\u5b85
sI3841
V\u7687
sI3842
V\u5506
sI3843
V\u9189
sI3844
V\u6e56
sI3845
V\u4f8d
sI3846
V\u690e
sI3847
V\u6591
sI3848
V\u6410
sI3849
V\u6ceb
sI3850
V\u5e97
sI3851
V\u5d16
sI3852
V\u5999
sI3853
V\u9818
sI3854
V\u9b1a
sI3855
V\u62d7
sI3856
V\u961c
sI3857
V\u529f
sI3858
V\u6f22
sI3859
V\u61a9
sI3860
V\u6028
sI3861
V\u5cab
sI3862
V\u632a
sI3863
V\u5fad
sI3864
V\u7aaf
sI3865
V\u592e
sI3866
V\u95b1
sI3867
V\u50b3
sI3868
V\u9732
sI3869
V\u9234
sI3870
V\u7802
sI3871
V\u6838
sI3872
V\u84bb
sI3873
V\u6b3a
sI3874
V\u813e
sI3875
V\u5c40
sI3876
V\u5bc5
sI3877
V\u96c7
sI3878
V\u5546
sI3879
V\u51c9
sI3880
V\u5048
sI3881
V\u534a
sI3882
V\u6139
sI3883
V\u5f4a
sI3884
V\u70b8
sI3885
V\u99d9
sI3886
V\u9858
sI3887
V\u57a0
sI3888
V\u9b5a
sI3889
V\u965c
sI3890
V\u52df
sI3891
V\u715e
sI3892
V\u6de1
sI3893
V\u6c60
sI3894
V\u68e3
sI3895
V\u8f62
sI3896
V\u6566
sI3897
V\u6068
sI3898
V\u7aef
sI3899
V\u596e
sI3900
V\u9112
sI3901
V\u4ef7
sI3902
V\u5368
sI3903
V\u522a
sI3904
V\u79be
sI3905
V\u6feb
sI3906
V\u62ff
sI3907
V\u617e
sI3908
V\u9803
sI3909
V\u5f82
sI3910
V\u7a84
sI3911
V\u7586
sI3912
V\u7109
sI3913
V\u9088
sI3914
V\u8b16
sI3915
V\u4f0d
sI3916
V\u4e8c
sI3917
V\u5d6c
sI3918
V\u8511
sI3919
V\u8490
sI3920
V\u5f6a
sI3921
V\u6294
sI3922
V\u7919
sI3923
V\u541b
sI3924
V\u5b9a
sI3925
V\u969c
sI3926
V\u8ca0
sI3927
V\u8aa4
sI3928
V\u6627
sI3929
V\u85a6
sI3930
V\u8129
sI3931
V\u742b
sI3932
V\u7c2b
sI3933
V\u63aa
sI3934
V\u95be
sI3935
V\u79ae
sI3936
V\u7531
sI3937
V\u74b0
sI3938
V\u96d6
sI3939
V\u7b97
sI3940
V\u6bba
sI3941
V\u673d
sI3942
V\u623f
sI3943
V\u61be
sI3944
V\u9b45
sI3945
V\u7ac4
sI3946
V\u7a20
sI3947
V\u5149
sI3948
V\u70c8
sI3949
V\u53ca
sI3950
V\u4f4d
sI3951
V\u6ecc
sI3952
V\u6551
sI3953
V\u87d2
sI3954
V\u6355
sI3955
V\u82d4
sI3956
V\u7dd6
sI3957
V\u58d8
sI3958
V\u945b
sI3959
V\u96dc
sI3960
V\u725f
sI3961
V\u51de
sI3962
V\u8ce0
sI3963
V\u8863
sI3964
V\u6b65
sI3965
V\u8667
sI3966
V\u65e6
sI3967
V\u55dc
sI3968
V\u5f6d
sI3969
V\u6853
sI3970
V\u59ee
sI3971
V\u5375
sI3972
V\u6979
sI3973
V\u88f8
sI3974
V\u620d
sI3975
V\u727e
sI3976
V\u66fc
sI3977
V\u627f
sI3978
V\u7d00
sI3979
V\u5983
sI3980
V\u5e02
sI3981
V\u7406
sI3982
V\u79ad
sI3983
V\u520a
sI3984
V\u8e8d
sI3985
V\u72d9
sI3986
V\u6c82
sI3987
V\u6295
sI3988
V\u5f97
sI3989
V\u5c16
sI3990
V\u9918
sI3991
V\u7a1a
sI3992
V\u769d
sI3993
V\u971c
sI3994
V\u539f
sI3995
V\u901e
sI3996
V\u8ca1
sI3997
V\u8aa5
sI3998
V\u7230
sI3999
V\u80a9
sI4000
V\u4f5d
sI4001
V\u7686
sI4002
V\u5ead
sI4003
V\u7530
sI4004
V\u9632
sI4005
V\u7334
sI4006
V\u8938
sI4007
V\u8a3a
sI4008
V\u708a
sI4009
V\u7ac5
sI4010
V\u9b44
sI4011
V\u5e58
sI4012
V\u5446
sI4013
V\u50c9
sI4014
V\u5148
sI4015
V\u8dcb
sI4016
V\u524a
sI4017
V\u8ecd
sI4018
V\u7063
sI4019
V\u6bcf
sI4020
V\u684e
sI4021
V\u8606
sI4022
V\u7fb9
sI4023
V\u5fd7
sI4024
V\u6e38
sI4025
V\u58d9
sI4026
V\u5958
sI4027
V\u75db
sI4028
V\u9a5a
sI4029
V\u975c
sI4030
V\u905e
sI4031
V\u6ce1
sI4032
V\u89e3
sI4033
V\u6b64
sI4034
V\u6168
sI4035
V\u5deb
sI4036
V\u7de6
sI4037
V\u5f6c
sI4038
V\u7570
sI4039
V\u52f5
sI4040
V\u5374
sI4041
V\u8ff7
sI4042
V\u78e8
sI4043
V\u6978
sI4044
V\u85fb
sI4045
V\u5bee
sI4046
V\u807e
sI4047
V\u5c01
sI4048
V\u7e82
sI4049
V\u7a05
sI4050
V\u5d17
sI4051
V\u9707
sI4052
V\u5486
sI4053
V\u7009
sI4054
V\u6d0b
sI4055
V\u528a
sI4056
V\u4e0d
sI4057
V\u7e37
sI4058
V\u7a19
sI4059
V\u8942
sI4060
V\u6215
sI4061
V\u5f17
sI4062
V\u5a9a
sI4063
V\u6ea2
sI4064
V\u8a25
sI4065
V\u6ba4
sI4066
V\u67d2
sI4067
V\u81a8
sI4068
V\u7d2b
sI4069
V\u5e2d
sI4070
V\u9b2f
sI4071
V\u58ae
sI4072
V\u5180
sI4073
V\u7235
sI4074
V\u8cb6
sI4075
V\u6839
sI4076
V\u7b75
sI4077
V\u653b
sI4078
V\u5acb
sI4079
V\u5e5e
sI4080
V\u9a45
sI4081
V\u7bc4
sI4082
V\u5747
sI4083
V\u54c6
sI4084
V\u5049
sI4085
V\u71c8
sI4086
V\u6e4d
sI4087
V\u8b4f
sI4088
V\u6153
sI4089
V\u5f57
sI4090
V\u7cd6
sI4091
V\u79d8
sI4092
V\u8f4e
sI4093
V\u965d
sI4094
V\u77dc
sI4095
V\u50de
sI4096
V\u8c61
sI4097
V\u6963
sI4098
V\u64e6
sI4099
V\u6069
sI4100
V\u81e8
sI4101
V\u7f79
sI4102
V\u9b6f
sI4103
V\u98ee
sI4104
V\u5471
sI4105
V\u75f0
sI4106
V\u76f2
sI4107
V\u5275
sI4108
V\u89f8
sI4109
V\u8afa
sI4110
V\u5108
sI4111
V\u6968
sI4112
V\u5f81
sI4113
V\u7d02
sI4114
V\u7487
sI4115
V\u6500
sI4116
V\u7389
sI4117
V\u5208
sI4118
V\u4e8b
sI4119
V\u6d8d
sI4120
V\u688f
sI4121
V\u8b0e
sI4122
V\u8602
sI4123
V\u6014
sI4124
V\u7c97
sI4125
V\u6e58
sI4126
V\u5b99
sI4127
V\u5a18
sI4128
V\u969b
sI4129
V\u591a
sI4130
V\u559d
sI4131
V\u82db
sI4132
V\u4fce
sI4133
V\u6e20
sI4134
V\u8aa3
sI4135
V\u6726
sI4136
V\u63a9
sI4137
V\u91dd
sI4138
V\u5eab
sI4139
V\u7dad
sI4140
V\u905c
sI4141
V\u92b3
sI4142
V\u7532
sI4143
V\u91b5
sI4144
V\u8cb7
sI4145
V\u4f36
sI4146
V\u6dc6
sI4147
V\u6a38
sI4148
V\u66bb
sI4149
V\u65bd
sI4150
V\u758b
sI4151
V\u633e
sI4152
V\u7fc1
sI4153
V\u5e40
sI4154
V\u7d42
sI4155
V\u53c9
sI4156
V\u7248
sI4157
V\u6ecb
sI4158
V\u914a
sI4159
V\u8c4c
sI4160
V\u88cf
sI4161
V\u6b4e
sI4162
V\u67d1
sI4163
V\u8650
sI4164
V\u62d3
sI4165
V\u6962
sI4166
V\u5bb8
sI4167
V\u56db
sI4168
V\u795a
sI4169
V\u745c
sI4170
V\u70df
sI4171
V\u7c64
sI4172
V\u4fe1
sI4173
V\u8e60
sI4174
V\u58ba
sI4175
V\u64e7
sI4176
V\u8766
sI4177
V\u83e9
sI4178
V\u5c6c
sI4179
V\u58ef
sI4180
V\u7b6e
sI4181
V\u9670
sI4182
V\u52f3
sI4183
V\u91f5
sI4184
V\u5074
sI4185
V\u6668
sI4186
V\u65fd
sI4187
V\u5f01
sI4188
V\u856a
sI4189
V\u5cbe
sI4190
V\u5288
sI4191
V\u4e0b
sI4192
V\u518a
sI4193
V\u8d0d
sI4194
V\u8c8c
sI4195
V\u9099
sI4196
V\u6115
sI4197
V\u6094
sI4198
V\u7b19
sI4199
V\u5d19
sI4200
V\u901f
sI4201
V\u99c4
sI4202
V\u83f1
sI4203
V\u6a23
sI4204
V\u8925
sI4205
V\u93e2
sI4206
V\u5e2b
sI4207
V\u96c6
sI4208
V\u5cac
sI4209
V\u582f
sI4210
V\u9bae
sI4211
V\u75b2
sI4212
V\u8c37
sI4213
V\u4fb6
sI4214
V\u8b39
sI4215
V\u663b
sI4216
V\u89ba
sI4217
V\u853d
sI4218
V\u84bc
sI4219
V\u803f
sI4220
V\u70b3
sI4221
V\u9945
sI4222
V\u98c4
sI4223
V\u9403
sI4224
V\u97c6
sI4225
V\u5349
sI4226
V\u7c4d
sI4227
V\u4e4b
sI4228
V\u7662
sI4229
V\u6ccc
sI4230
V\u6751
sI4231
V\u6253
sI4232
V\u9021
sI4233
V\u6155
sI4234
V\u9c57
sI4235
V\u9ad8
sI4236
V\u965b
sI4237
V\u59da
sI4238
V\u755d
sI4239
V\u74dc
sI4240
V\u93de
sI4241
V\u8f61
sI4242
V\u8a63
sI4243
V\u7e6b
sI4244
V\u81ea
sI4245
V\u986f
sI4246
V\u707c
sI4247
V\u96f0
sI4248
V\u75f2
sI4249
V\u5175
sI4250
V\u8af8
sI4251
V\u9320
sI4252
V\u5960
sI4253
V\u8968
sI4254
V\u5885
sI4255
V\u7587
sI4256
V\u5606
sI4257
V\u5289
sI4258
V\u5308
sI4259
V\u4f8b
sI4260
V\u6d0c
sI4261
V\u898f
sI4262
V\u8a0e
sI4263
V\u6691
sI4264
V\u5e16
sI4265
V\u719f
sI4266
V\u921e
sI4267
V\u4ea1
sI4268
V\u6f20
sI4269
V\u65a7
sI4270
V\u82a9
sI4271
V\u8328
sI4272
V\u602a
sI4273
V\u7d2c
sI4274
V\u7a2e
sI4275
V\u96b1
sI4276
V\u5730
sI4277
V\u73b3
sI4278
V\u6e32
sI4279
V\u50b5
sI4280
V\u8ab9
sI4281
V\u9dbb
sI4282
V\u81bf
sI4283
V\u623e
sI4284
V\u5ec1
sI4285
V\u5e61
sI4286
V\u5bc3
sI4287
V\u758a
sI4288
V\u58c5
sI4289
V\u75c7
sI4290
V\u7fe0
sI4291
V\u52c9
sI4292
V\u5348
sI4293
V\u904a
sI4294
V\u6750
sI4295
V\u83d3
sI4296
V\u6ce2
sI4297
V\u60d5
sI4298
V\u8154
sI4299
V\u9dd7
sI4300
V\u7ad9
sI4301
V\u5b58
sI4302
V\u77db
sI4303
V\u985a
sI4304
V\u9055
sI4305
V\u755c
sI4306
V\u71df
sI4307
V\u925e
sI4308
V\u9a40
sI4309
V\u923a
sI4310
V\u8964
sI4311
V\u65e7
sI4312
V\u6666
sI4313
V\u6368
sI4314
V\u5feb
sI4315
V\u5ced
sI4316
V\u9d6c
sI4317
V\u5269
sI4318
V\u53f3
sI4319
V\u9192
sI4320
V\u90f5
sI4321
V\u6df7
sI4322
V\u8e76
sI4323
V\u6b78
sI4324
V\u67fb
sI4325
V\u61ff
sI4326
V\u827e
sI4327
V\u5f80
sI4328
V\u9b03
sI4329
V\u9805
sI4330
V\u5984
sI4331
V\u5686
sI4332
V\u908a
sI4333
V\u6d8c
sI4334
V\u6790
sI4335
V\u6492
sI4336
V\u8015
sI4337
V\u6194
sI4338
V\u7d17
sI4339
V\u7e96
sI4340
V\u9a19
sI4341
V\u5b98
sI4342
V\u559c
sI4343
V\u511f
sI4344
V\u6e21
sI4345
V\u6b23
sI4346
V\u8ca2
sI4347
V\u63a8
sI4348
V\u80aa
sI4349
V\u7dac
sI4350
V\u7aae
sI4351
V\u77b0
sI4352
V\u91b4
sI4353
V\u6eb6
sI4354
V\u6a39
sI4355
V\u9075
sI4356
V\u843d
sI4357
V\u65bc
sI4358
V\u7e41
sI4359
V\u5b43
sI4360
V\u7845
sI4361
V\u8d77
sI4362
V\u76c6
sI4363
V\u9249
sI4364
V\u53c8
sI4365
V\u90ca
sI4366
V\u8dcc
sI4367
V\u67d0
sI4368
V\u6055
sI4369
V\u775b
sI4370
V\u58da
sI4371
V\u95dc
sI4372
V\u52de
sI4373
V\u6fe0
sI4374
V\u6b63
sI4375
V\u8ce2
sI4376
V\u5d50
sI4377
V\u947d
sI4378
V\u5f6b
sI4379
V\u7dec
sI4380
V\u9aee
sI4381
V\u57f0
sI4382
V\u54f2
sI4383
V\u5075
sI4384
V\u6d77
sI4385
V\u4ef6
sI4386
V\u7957
sI4387
V\u68fa
sI4388
V\u65fc
sI4389
V\u817f
sI4390
V\u9b54
st.